 Net

 Timestamp is 4a6e6f01 (Tue Jul 28 11:22:41 2009)

 Preferred load address is 10000000

 Start         Length     Name                   Class
 0001:00000000 00025dadH .text                   CODE
 0001:00025db0 0000117aH .text$x                 CODE
 0001:00026f30 00000142H .text$yc                CODE
 0001:00027080 000000caH .text$yd                CODE
 0002:00000000 000001d0H .idata$5                DATA
 0002:000001d0 00000004H .CRT$XCA                DATA
 0002:000001d4 0000001cH .CRT$XCC                DATA
 0002:000001f0 00000014H .CRT$XCU                DATA
 0002:00000204 00000004H .CRT$XCZ                DATA
 0002:00000208 00000004H .CRT$XIA                DATA
 0002:0000020c 00000018H .CRT$XIC                DATA
 0002:00000224 00000004H .CRT$XID                DATA
 0002:00000228 00000004H .CRT$XIY                DATA
 0002:0000022c 00000004H .CRT$XIZ                DATA
 0002:00000230 00000004H .CRT$XPA                DATA
 0002:00000234 00000004H .CRT$XPX                DATA
 0002:00000238 00000004H .CRT$XPXA               DATA
 0002:0000023c 00000004H .CRT$XPZ                DATA
 0002:00000240 00000004H .CRT$XTA                DATA
 0002:00000244 00000004H .CRT$XTB                DATA
 0002:00000248 00000004H .CRT$XTZ                DATA
 0002:00000250 00003f90H .rdata                  DATA
 0002:000041e0 00000f1cH .rdata$r                DATA
 0002:00005100 00000178H .rdata$sxdata           DATA
 0002:00005278 00000004H .rtc$IAA                DATA
 0002:0000527c 00000004H .rtc$IZZ                DATA
 0002:00005280 00000004H .rtc$TAA                DATA
 0002:00005284 00000004H .rtc$TZZ                DATA
 0002:00005288 0000235cH .xdata$x                DATA
 0002:000075e4 0000003cH .idata$2                DATA
 0002:00007620 00000014H .idata$3                DATA
 0002:00007634 000001d0H .idata$4                DATA
 0002:00007804 000006ccH .idata$6                DATA
 0002:00007ed0 00000065H .edata                  DATA
 0003:00000000 00001cf8H .data                   DATA
 0003:00001d00 00002be8H .bss                    DATA

  Address         Publics by Value              Rva+Base       Lib:Object

 0000:00000000       __except_list              00000000     <absolute>
 0000:0000005e       ___safe_se_handler_count   0000005e     <absolute>
 0000:00000000       ___ImageBase               10000000     <linker-defined>
 0001:00000000       ??0CircularBuffer@@QAE@I@Z 10001000 f   CirBuffer.obj
 0001:00000030       ??1CircularBuffer@@QAE@XZ  10001030 f   CirBuffer.obj
 0001:00000040       ?Write@CircularBuffer@@QAE_NPBDI@Z 10001040 f   CirBuffer.obj
 0001:000000e0       ?Remove@CircularBuffer@@QAE_NI@Z 100010e0 f   CirBuffer.obj
 0001:00000140       ??1bad_alloc@std@@UAE@XZ   10001140 f i ClientSocket.obj
 0001:00000150       ??_Gbad_alloc@std@@UAEPAXI@Z 10001150 f i ClientSocket.obj
 0001:00000150       ??_Ebad_alloc@std@@UAEPAXI@Z 10001150 f i ClientSocket.obj
 0001:00000180       ?_Copy_s@?$char_traits@D@std@@SAPADPADIPBDI@Z 10001180 f i ClientSocket.obj
 0001:000001b0       ??3CSocket@net@@SAXPAX@Z   100011b0 f i ClientSocket.obj
 0001:000001c0       ?Close@CClientSocket@net@@UAEXXZ 100011c0 f   ClientSocket.obj
 0001:000001e0       ?SendMsg@CClientSocket@net@@UAE_NPBXH@Z 100011e0 f   ClientSocket.obj
 0001:00000230       ?Process@CClientSocket@net@@UAEXXZ 10001230 f   ClientSocket.obj
 0001:000003b0       ?QueryEncryptor@CClientSocket@net@@UAEPAVIEncryptor@2@W4ENCRYPTOR_TYPE@2@@Z 100013b0 f   ClientSocket.obj
 0001:000003e0       ?GetBufByteNum@CClientSocket@net@@UAEIXZ 100013e0 f   ClientSocket.obj
 0001:000003f0       ?ChgEncryptor@CClientSocket@net@@UAEXW4ENCRYPTOR_TYPE@2@PAVIEncryptor@2@@Z 100013f0 f   ClientSocket.obj
 0001:000005d0       ?_Eos@?$basic_string@DU?$char_traits@D@std@@V?$allocator@D@2@@std@@IAEXI@Z 100015d0 f i ClientSocket.obj
 0001:000005f0       ??$_Allocate@D@std@@YAPADIPAD@Z 100015f0 f i ClientSocket.obj
 0001:00000650       ??0bad_alloc@std@@QAE@ABV01@@Z 10001650 f i ClientSocket.obj
 0001:00000670       ?_Tidy@?$basic_string@DU?$char_traits@D@std@@V?$allocator@D@2@@std@@IAEX_NI@Z 10001670 f i ClientSocket.obj
 0001:000006c0       ?erase@?$basic_string@DU?$char_traits@D@std@@V?$allocator@D@2@@std@@QAEAAV12@II@Z 100016c0 f i ClientSocket.obj
 0001:00000750       ?_Copy@?$basic_string@DU?$char_traits@D@std@@V?$allocator@D@2@@std@@IAEXII@Z 10001750 f i ClientSocket.obj
 0001:000008a0       ??1?$basic_string@DU?$char_traits@D@std@@V?$allocator@D@2@@std@@QAE@XZ 100018a0 f i ClientSocket.obj
 0001:000008a0       ??1?$pair@$$CBV?$basic_string@DU?$char_traits@D@std@@V?$allocator@D@2@@std@@PAVCServe@serve@@@std@@QAE@XZ 100018a0 f i KernelImpl.obj
 0001:000008d0       ?_Grow@?$basic_string@DU?$char_traits@D@std@@V?$allocator@D@2@@std@@IAE_NI_N@Z 100018d0 f i ClientSocket.obj
 0001:00000990       ??0CClientSocket@net@@QAE@AAVIClientSocketEvent@1@PAVIEncryptor@1@1@Z 10001990 f   ClientSocket.obj
 0001:000009e0       ?Release@CClientSocket@net@@UAEKXZ 100019e0 f i ClientSocket.obj
 0001:000009f0       ??1CClientSocket@net@@UAE@XZ 100019f0 f   ClientSocket.obj
 0001:00000b10       ?assign@?$basic_string@DU?$char_traits@D@std@@V?$allocator@D@2@@std@@QAEAAV12@ABV12@II@Z 10001b10 f i ClientSocket.obj
 0001:00000bf0       ?assign@?$basic_string@DU?$char_traits@D@std@@V?$allocator@D@2@@std@@QAEAAV12@PBDI@Z 10001bf0 f i ClientSocket.obj
 0001:00000cc0       ??_GCClientSocket@net@@UAEPAXI@Z 10001cc0 f i ClientSocket.obj
 0001:00000cc0       ??_ECClientSocket@net@@UAEPAXI@Z 10001cc0 f i ClientSocket.obj
 0001:00000ce0       ??4?$basic_string@DU?$char_traits@D@std@@V?$allocator@D@2@@std@@QAEAAV01@PBD@Z 10001ce0 f i ClientSocket.obj
 0001:00000ce0       ?assign@?$basic_string@DU?$char_traits@D@std@@V?$allocator@D@2@@std@@QAEAAV12@PBD@Z 10001ce0 f i ClientSocket.obj
 0001:00000d10       ?Init@CClientSocket@net@@QAE_NPBDHK@Z 10001d10 f   ClientSocket.obj
 0001:00001050       ?ClientSocketCreate@net@@YAPAVIClientSocket@1@AAVIClientSocketEvent@1@PBDHKPAVIEncryptor@1@2@Z 10002050 f   ClientSocket.obj
 0001:000011f0       ?compare@?$char_traits@D@std@@SAHPBD0I@Z 100021f0 f i KernelImpl.obj
 0001:00001280       ?Init@CKernelImpl@serve@@UAE_NXZ 10002280 f   KernelImpl.obj
 0001:000012a0       ?QueryShellPort@CKernelImpl@serve@@UBEPAVIPort@2@XZ 100022a0 f   KernelImpl.obj
 0001:000012e0       ?UpdateInitInfo@CKernelImpl@serve@@IAEXPBD@Z 100022e0 f   KernelImpl.obj
 0001:00001330       ?_Max@?$_Tree@V?$_Tmap_traits@GPAVCServe@serve@@U?$less@G@std@@V?$allocator@U?$pair@$$CBGPAVCServe@serve@@@std@@@4@$0A@@std@@@std@@KAPAU_Node@?$_Tree_nod@V?$_Tmap_traits@GPAVCServe@serve@@U?$less@G@std@@V?$allocator@U?$pair@$$CBGPAVCServe@serve@@@std@@@4@$0A@@std@@@2@PAU342@@Z 10002330 f i KernelImpl.obj
 0001:00001330       ?_Max@?$_Tree@V?$_Tmap_traits@IW4PORT@serve@@U?$less@I@std@@V?$allocator@U?$pair@$$CBIW4PORT@serve@@@std@@@4@$0A@@std@@@std@@KAPAU_Node@?$_Tree_nod@V?$_Tmap_traits@IW4PORT@serve@@U?$less@I@std@@V?$allocator@U?$pair@$$CBIW4PORT@serve@@@std@@@4@$0A@@std@@@2@PAU342@@Z 10002330 f i NetServeImpl.obj
 0001:00001330       ?_Max@?$_Tree@V?$_Tmap_traits@IPAVCSocket@net@@U?$less@I@std@@V?$allocator@U?$pair@$$CBIPAVCSocket@net@@@std@@@4@$0A@@std@@@std@@KAPAU_Node@?$_Tree_nod@V?$_Tmap_traits@IPAVCSocket@net@@U?$less@I@std@@V?$allocator@U?$pair@$$CBIPAVCSocket@net@@@std@@@4@$0A@@std@@@2@PAU342@@Z 10002330 f i ServeSocket.obj
 0001:00001350       ?_Rrotate@?$_Tree@V?$_Tmap_traits@IW4PORT@serve@@U?$less@I@std@@V?$allocator@U?$pair@$$CBIW4PORT@serve@@@std@@@4@$0A@@std@@@std@@IAEXPAU_Node@?$_Tree_nod@V?$_Tmap_traits@IW4PORT@serve@@U?$less@I@std@@V?$allocator@U?$pair@$$CBIW4PORT@serve@@@std@@@4@$0A@@std@@@2@@Z 10002350 f i NetServeImpl.obj
 0001:00001350       ?_Rrotate@?$_Tree@V?$_Tmap_traits@GPAVCServe@serve@@U?$less@G@std@@V?$allocator@U?$pair@$$CBGPAVCServe@serve@@@std@@@4@$0A@@std@@@std@@IAEXPAU_Node@?$_Tree_nod@V?$_Tmap_traits@GPAVCServe@serve@@U?$less@G@std@@V?$allocator@U?$pair@$$CBGPAVCServe@serve@@@std@@@4@$0A@@std@@@2@@Z 10002350 f i KernelImpl.obj
 0001:00001350       ?_Rrotate@?$_Tree@V?$_Tmap_traits@IPAVCSocket@net@@U?$less@I@std@@V?$allocator@U?$pair@$$CBIPAVCSocket@net@@@std@@@4@$0A@@std@@@std@@IAEXPAU_Node@?$_Tree_nod@V?$_Tmap_traits@IPAVCSocket@net@@U?$less@I@std@@V?$allocator@U?$pair@$$CBIPAVCSocket@net@@@std@@@4@$0A@@std@@@2@@Z 10002350 f i ServeSocket.obj
 0001:000013b0       ?_Min@?$_Tree@V?$_Tmap_traits@KV?$basic_string@DU?$char_traits@D@std@@V?$allocator@D@2@@std@@U?$less@K@2@V?$allocator@U?$pair@$$CBKV?$basic_string@DU?$char_traits@D@std@@V?$allocator@D@2@@std@@@std@@@2@$0A@@std@@@std@@KAPAU_Node@?$_Tree_nod@V?$_Tmap_traits@KV?$basic_string@DU?$char_traits@D@std@@V?$allocator@D@2@@std@@U?$less@K@2@V?$allocator@U?$pair@$$CBKV?$basic_string@DU?$char_traits@D@std@@V?$allocator@D@2@@std@@@std@@@2@$0A@@std@@@2@PAU342@@Z 100023b0 f i base:SvrBase.obj
 0001:000013b0       ?_Min@?$_Tree@V?$_Tmap_traits@V?$basic_string@DU?$char_traits@D@std@@V?$allocator@D@2@@std@@PAVCServe@serve@@U?$less@V?$basic_string@DU?$char_traits@D@std@@V?$allocator@D@2@@std@@@2@V?$allocator@U?$pair@$$CBV?$basic_string@DU?$char_traits@D@std@@V?$allocator@D@2@@std@@PAVCServe@serve@@@std@@@2@$0A@@std@@@std@@KAPAU_Node@?$_Tree_nod@V?$_Tmap_traits@V?$basic_string@DU?$char_traits@D@std@@V?$allocator@D@2@@std@@PAVCServe@serve@@U?$less@V?$basic_string@DU?$char_traits@D@std@@V?$allocator@D@2@@std@@@2@V?$allocator@U?$pair@$$CBV?$basic_string@DU?$char_traits@D@std@@V?$allocator@D@2@@std@@PAVCServe@serve@@@std@@@2@$0A@@std@@@2@PAU342@@Z 100023b0 f i KernelImpl.obj
 0001:000013d0       ?_Dec@const_iterator@?$_Tree@V?$_Tmap_traits@V?$basic_string@DU?$char_traits@D@std@@V?$allocator@D@2@@std@@PAVCServe@serve@@U?$less@V?$basic_string@DU?$char_traits@D@std@@V?$allocator@D@2@@std@@@2@V?$allocator@U?$pair@$$CBV?$basic_string@DU?$char_traits@D@std@@V?$allocator@D@2@@std@@PAVCServe@serve@@@std@@@2@$0A@@std@@@std@@QAEXXZ 100023d0 f i KernelImpl.obj
 0001:00001460       ??$sprintf_s@$0CAA@@@YAHAAY0CAA@DPBDZZ 10002460 f i KernelImpl.obj
 0001:00001480       ??$sprintf_s@$0EAA@@@YAHAAY0EAA@DPBDZZ 10002480 f i KernelImpl.obj
 0001:000014a0       ?InitRouter@CKernelImpl@serve@@MAE_NXZ 100024a0 f   KernelImpl.obj
 0001:00001570       ?compare@?$basic_string@DU?$char_traits@D@std@@V?$allocator@D@2@@std@@QBEHIIPBDI@Z 10002570 f i KernelImpl.obj
 0001:000015e0       ?CloseSocket@CKernelImpl@serve@@UAEXI@Z 100025e0 f   KernelImpl.obj
 0001:00001650       ??$_Distance2@Viterator@?$_Tree@V?$_Tmap_traits@V?$basic_string@DU?$char_traits@D@std@@V?$allocator@D@2@@std@@PAVCServe@serve@@U?$less@V?$basic_string@DU?$char_traits@D@std@@V?$allocator@D@2@@std@@@2@V?$allocator@U?$pair@$$CBV?$basic_string@DU?$char_traits@D@std@@V?$allocator@D@2@@std@@PAVCServe@serve@@@std@@@2@$0A@@std@@@std@@I@std@@YAXViterator@?$_Tree@V?$_Tmap_traits@V?$basic_string@DU?$char_traits@D@std@@V?$allocator@D@2@@std@@PAVCServe@serve@@U?$less@V?$basic_string@DU?$char_traits@D@std@@V?$allocator@D@2@@std@@@2@V?$allocator@U?$pair@$$CBV?$basic_string@DU?$char_traits@D@std@@V?$allocator@D@2@@std@@PAVCServe@serve@@@std@@@2@$0A@@std@@@0@0AAIUbidirectional_iterator_tag@0@@Z 10002650 f i KernelImpl.obj
 0001:00001690       ?append@?$basic_string@DU?$char_traits@D@std@@V?$allocator@D@2@@std@@QAEAAV12@ABV12@II@Z 10002690 f i KernelImpl.obj
 0001:00001790       ?_Lbound@?$_Tree@V?$_Tmap_traits@V?$basic_string@DU?$char_traits@D@std@@V?$allocator@D@2@@std@@PAVCServe@serve@@U?$less@V?$basic_string@DU?$char_traits@D@std@@V?$allocator@D@2@@std@@@2@V?$allocator@U?$pair@$$CBV?$basic_string@DU?$char_traits@D@std@@V?$allocator@D@2@@std@@PAVCServe@serve@@@std@@@2@$0A@@std@@@std@@IBEPAU_Node@?$_Tree_nod@V?$_Tmap_traits@V?$basic_string@DU?$char_traits@D@std@@V?$allocator@D@2@@std@@PAVCServe@serve@@U?$less@V?$basic_string@DU?$char_traits@D@std@@V?$allocator@D@2@@std@@@2@V?$allocator@U?$pair@$$CBV?$basic_string@DU?$char_traits@D@std@@V?$allocator@D@2@@std@@PAVCServe@serve@@@std@@@2@$0A@@std@@@2@ABV?$basic_string@DU?$char_traits@D@std@@V?$allocator@D@2@@2@@Z 10002790 f i KernelImpl.obj
 0001:00001820       ?_Ubound@?$_Tree@V?$_Tmap_traits@V?$basic_string@DU?$char_traits@D@std@@V?$allocator@D@2@@std@@PAVCServe@serve@@U?$less@V?$basic_string@DU?$char_traits@D@std@@V?$allocator@D@2@@std@@@2@V?$allocator@U?$pair@$$CBV?$basic_string@DU?$char_traits@D@std@@V?$allocator@D@2@@std@@PAVCServe@serve@@@std@@@2@$0A@@std@@@std@@IBEPAU_Node@?$_Tree_nod@V?$_Tmap_traits@V?$basic_string@DU?$char_traits@D@std@@V?$allocator@D@2@@std@@PAVCServe@serve@@U?$less@V?$basic_string@DU?$char_traits@D@std@@V?$allocator@D@2@@std@@@2@V?$allocator@U?$pair@$$CBV?$basic_string@DU?$char_traits@D@std@@V?$allocator@D@2@@std@@PAVCServe@serve@@@std@@@2@$0A@@std@@@2@ABV?$basic_string@DU?$char_traits@D@std@@V?$allocator@D@2@@2@@Z 10002820 f i KernelImpl.obj
 0001:000018c0       ?what@logic_error@std@@UBEPBDXZ 100028c0 f i KernelImpl.obj
 0001:000018c0       ?what@runtime_error@std@@UBEPBDXZ 100028c0 f i ListenSocket.obj
 0001:000018d0       ?find@?$_Tree@V?$_Tmap_traits@GPAVCServe@serve@@U?$less@G@std@@V?$allocator@U?$pair@$$CBGPAVCServe@serve@@@std@@@4@$0A@@std@@@std@@QAE?AViterator@12@ABG@Z 100028d0 f i KernelImpl.obj
 0001:00001940       ?append@?$basic_string@DU?$char_traits@D@std@@V?$allocator@D@2@@std@@QAEAAV12@PBDI@Z 10002940 f i KernelImpl.obj
 0001:00001a30       ??0logic_error@std@@QAE@ABV?$basic_string@DU?$char_traits@D@std@@V?$allocator@D@2@@1@@Z 10002a30 f i KernelImpl.obj
 0001:00001aa0       ??1length_error@std@@UAE@XZ 10002aa0 f i KernelImpl.obj
 0001:00001aa0       ??1out_of_range@std@@UAE@XZ 10002aa0 f i KernelImpl.obj
 0001:00001ae0       ??_Elength_error@std@@UAEPAXI@Z 10002ae0 f i KernelImpl.obj
 0001:00001ae0       ??_Gout_of_range@std@@UAEPAXI@Z 10002ae0 f i KernelImpl.obj
 0001:00001ae0       ??_Glength_error@std@@UAEPAXI@Z 10002ae0 f i KernelImpl.obj
 0001:00001ae0       ??_Glogic_error@std@@UAEPAXI@Z 10002ae0 f i KernelImpl.obj
 0001:00001ae0       ??_Eout_of_range@std@@UAEPAXI@Z 10002ae0 f i KernelImpl.obj
 0001:00001ae0       ??_Elogic_error@std@@UAEPAXI@Z 10002ae0 f i KernelImpl.obj
 0001:00001b30       ??0?$basic_string@DU?$char_traits@D@std@@V?$allocator@D@2@@std@@QAE@PBD@Z 10002b30 f i KernelImpl.obj
 0001:00001b70       ??0logic_error@std@@QAE@ABV01@@Z 10002b70 f i KernelImpl.obj
 0001:00001bf0       ??0length_error@std@@QAE@ABV01@@Z 10002bf0 f i KernelImpl.obj
 0001:00001c10       ?_Xlen@?$vector@PAVCServe@serve@@V?$allocator@PAVCServe@serve@@@std@@@std@@KAXXZ 10002c10 f i KernelImpl.obj
 0001:00001c10       ?_Xlen@?$vector@PAVCRouterPort@serve@@V?$allocator@PAVCRouterPort@serve@@@std@@@std@@KAXXZ 10002c10 f i MsgRouter.obj
 0001:00001c10       ?_Xlen@?$vector@PAVCMsg@sbase@@V?$allocator@PAVCMsg@sbase@@@std@@@std@@KAXXZ 10002c10 f i NetClient.obj
 0001:00001c90       ??0_Node@?$_Tree_nod@V?$_Tmap_traits@V?$basic_string@DU?$char_traits@D@std@@V?$allocator@D@2@@std@@PAVCServe@serve@@U?$less@V?$basic_string@DU?$char_traits@D@std@@V?$allocator@D@2@@std@@@2@V?$allocator@U?$pair@$$CBV?$basic_string@DU?$char_traits@D@std@@V?$allocator@D@2@@std@@PAVCServe@serve@@@std@@@2@$0A@@std@@@std@@QAE@PAU012@00ABU?$pair@$$CBV?$basic_string@DU?$char_traits@D@std@@V?$allocator@D@2@@std@@PAVCServe@serve@@@2@D@Z 10002c90 f i KernelImpl.obj
 0001:00001cf0       ??0out_of_range@std@@QAE@ABV01@@Z 10002cf0 f i KernelImpl.obj
 0001:00001d10       ?RunServes@CKernelImpl@serve@@MAE_NXZ 10002d10 f   KernelImpl.obj
 0001:00002070       ?DestroyServes@CKernelImpl@serve@@MAEXXZ 10003070 f   KernelImpl.obj
 0001:000022a0       ?insert@?$_Tree@V?$_Tmap_traits@GPAVCServe@serve@@U?$less@G@std@@V?$allocator@U?$pair@$$CBGPAVCServe@serve@@@std@@@4@$0A@@std@@@std@@QAE?AU?$pair@Viterator@?$_Tree@V?$_Tmap_traits@GPAVCServe@serve@@U?$less@G@std@@V?$allocator@U?$pair@$$CBGPAVCServe@serve@@@std@@@4@$0A@@std@@@std@@_N@2@ABU?$pair@$$CBGPAVCServe@serve@@@2@@Z 100032a0 f i KernelImpl.obj
 0001:00002360       ?_Insert_n@?$vector@PAVCRouterPort@serve@@V?$allocator@PAVCRouterPort@serve@@@std@@@std@@IAEXV?$_Vector_iterator@PAVCRouterPort@serve@@V?$allocator@PAVCRouterPort@serve@@@std@@@2@IABQAVCRouterPort@serve@@@Z 10003360 f i MsgRouter.obj
 0001:00002360       ?_Insert_n@?$vector@PAVCServe@serve@@V?$allocator@PAVCServe@serve@@@std@@@std@@IAEXV?$_Vector_iterator@PAVCServe@serve@@V?$allocator@PAVCServe@serve@@@std@@@2@IABQAVCServe@serve@@@Z 10003360 f i KernelImpl.obj
 0001:00002360       ?_Insert_n@?$vector@PAVCMsg@sbase@@V?$allocator@PAVCMsg@sbase@@@std@@@std@@IAEXV?$_Vector_iterator@PAVCMsg@sbase@@V?$allocator@PAVCMsg@sbase@@@std@@@2@IABQAVCMsg@sbase@@@Z 10003360 f i NetClient.obj
 0001:00002520       ?_Buynode@?$_Tree@V?$_Tmap_traits@V?$basic_string@DU?$char_traits@D@std@@V?$allocator@D@2@@std@@PAVCServe@serve@@U?$less@V?$basic_string@DU?$char_traits@D@std@@V?$allocator@D@2@@std@@@2@V?$allocator@U?$pair@$$CBV?$basic_string@DU?$char_traits@D@std@@V?$allocator@D@2@@std@@PAVCServe@serve@@@std@@@2@$0A@@std@@@std@@IAEPAU_Node@?$_Tree_nod@V?$_Tmap_traits@V?$basic_string@DU?$char_traits@D@std@@V?$allocator@D@2@@std@@PAVCServe@serve@@U?$less@V?$basic_string@DU?$char_traits@D@std@@V?$allocator@D@2@@std@@@2@V?$allocator@U?$pair@$$CBV?$basic_string@DU?$char_traits@D@std@@V?$allocator@D@2@@std@@PAVCServe@serve@@@std@@@2@$0A@@std@@@2@PAU342@00ABU?$pair@$$CBV?$basic_string@DU?$char_traits@D@std@@V?$allocator@D@2@@std@@PAVCServe@serve@@@2@D@Z 10003520 f i KernelImpl.obj
 0001:000025c0       ?insert@?$vector@PAVCMsg@sbase@@V?$allocator@PAVCMsg@sbase@@@std@@@std@@QAE?AV?$_Vector_iterator@PAVCMsg@sbase@@V?$allocator@PAVCMsg@sbase@@@std@@@2@V32@ABQAVCMsg@sbase@@@Z 100035c0 f i NetClient.obj
 0001:000025c0       ?insert@?$vector@PAVCRouterPort@serve@@V?$allocator@PAVCRouterPort@serve@@@std@@@std@@QAE?AV?$_Vector_iterator@PAVCRouterPort@serve@@V?$allocator@PAVCRouterPort@serve@@@std@@@2@V32@ABQAVCRouterPort@serve@@@Z 100035c0 f i MsgRouter.obj
 0001:000025c0       ?insert@?$vector@PAVCServe@serve@@V?$allocator@PAVCServe@serve@@@std@@@std@@QAE?AV?$_Vector_iterator@PAVCServe@serve@@V?$allocator@PAVCServe@serve@@@std@@@2@V32@ABQAVCServe@serve@@@Z 100035c0 f i KernelImpl.obj
 0001:00002650       ?_Insert@?$_Tree@V?$_Tmap_traits@V?$basic_string@DU?$char_traits@D@std@@V?$allocator@D@2@@std@@PAVCServe@serve@@U?$less@V?$basic_string@DU?$char_traits@D@std@@V?$allocator@D@2@@std@@@2@V?$allocator@U?$pair@$$CBV?$basic_string@DU?$char_traits@D@std@@V?$allocator@D@2@@std@@PAVCServe@serve@@@std@@@2@$0A@@std@@@std@@IAE?AViterator@12@_NPAU_Node@?$_Tree_nod@V?$_Tmap_traits@V?$basic_string@DU?$char_traits@D@std@@V?$allocator@D@2@@std@@PAVCServe@serve@@U?$less@V?$basic_string@DU?$char_traits@D@std@@V?$allocator@D@2@@std@@@2@V?$allocator@U?$pair@$$CBV?$basic_string@DU?$char_traits@D@std@@V?$allocator@D@2@@std@@PAVCServe@serve@@@std@@@2@$0A@@std@@@2@ABU?$pair@$$CBV?$basic_string@DU?$char_traits@D@std@@V?$allocator@D@2@@std@@PAVCServe@serve@@@2@@Z 10003650 f i KernelImpl.obj
 0001:00002850       ?erase@?$_Tree@V?$_Tmap_traits@V?$basic_string@DU?$char_traits@D@std@@V?$allocator@D@2@@std@@PAVCServe@serve@@U?$less@V?$basic_string@DU?$char_traits@D@std@@V?$allocator@D@2@@std@@@2@V?$allocator@U?$pair@$$CBV?$basic_string@DU?$char_traits@D@std@@V?$allocator@D@2@@std@@PAVCServe@serve@@@std@@@2@$0A@@std@@@std@@QAE?AViterator@12@V312@@Z 10003850 f i KernelImpl.obj
 0001:00002b40       ?_Erase@?$_Tree@V?$_Tmap_traits@V?$basic_string@DU?$char_traits@D@std@@V?$allocator@D@2@@std@@PAVCServe@serve@@U?$less@V?$basic_string@DU?$char_traits@D@std@@V?$allocator@D@2@@std@@@2@V?$allocator@U?$pair@$$CBV?$basic_string@DU?$char_traits@D@std@@V?$allocator@D@2@@std@@PAVCServe@serve@@@std@@@2@$0A@@std@@@std@@IAEXPAU_Node@?$_Tree_nod@V?$_Tmap_traits@V?$basic_string@DU?$char_traits@D@std@@V?$allocator@D@2@@std@@PAVCServe@serve@@U?$less@V?$basic_string@DU?$char_traits@D@std@@V?$allocator@D@2@@std@@@2@V?$allocator@U?$pair@$$CBV?$basic_string@DU?$char_traits@D@std@@V?$allocator@D@2@@std@@PAVCServe@serve@@@std@@@2@$0A@@std@@@2@@Z 10003b40 f i KernelImpl.obj
 0001:00002ba0       ?push_back@?$vector@PAVCMsg@sbase@@V?$allocator@PAVCMsg@sbase@@@std@@@std@@QAEXABQAVCMsg@sbase@@@Z 10003ba0 f i NetClient.obj
 0001:00002ba0       ?push_back@?$vector@PAVCServe@serve@@V?$allocator@PAVCServe@serve@@@std@@@std@@QAEXABQAVCServe@serve@@@Z 10003ba0 f i KernelImpl.obj
 0001:00002c10       ?insert@?$_Tree@V?$_Tmap_traits@V?$basic_string@DU?$char_traits@D@std@@V?$allocator@D@2@@std@@PAVCServe@serve@@U?$less@V?$basic_string@DU?$char_traits@D@std@@V?$allocator@D@2@@std@@@2@V?$allocator@U?$pair@$$CBV?$basic_string@DU?$char_traits@D@std@@V?$allocator@D@2@@std@@PAVCServe@serve@@@std@@@2@$0A@@std@@@std@@QAE?AU?$pair@Viterator@?$_Tree@V?$_Tmap_traits@V?$basic_string@DU?$char_traits@D@std@@V?$allocator@D@2@@std@@PAVCServe@serve@@U?$less@V?$basic_string@DU?$char_traits@D@std@@V?$allocator@D@2@@std@@@2@V?$allocator@U?$pair@$$CBV?$basic_string@DU?$char_traits@D@std@@V?$allocator@D@2@@std@@PAVCServe@serve@@@std@@@2@$0A@@std@@@std@@_N@2@ABU?$pair@$$CBV?$basic_string@DU?$char_traits@D@std@@V?$allocator@D@2@@std@@PAVCServe@serve@@@2@@Z 10003c10 f i KernelImpl.obj
 0001:00002d40       ?RegisterServe@CKernelImpl@serve@@QAE_NPAVIServe@2@PAUHINSTANCE__@@@Z 10003d40 f   KernelImpl.obj
 0001:00002ee0       ?erase@?$_Tree@V?$_Tmap_traits@V?$basic_string@DU?$char_traits@D@std@@V?$allocator@D@2@@std@@PAVCServe@serve@@U?$less@V?$basic_string@DU?$char_traits@D@std@@V?$allocator@D@2@@std@@@2@V?$allocator@U?$pair@$$CBV?$basic_string@DU?$char_traits@D@std@@V?$allocator@D@2@@std@@PAVCServe@serve@@@std@@@2@$0A@@std@@@std@@QAE?AViterator@12@V312@0@Z 10003ee0 f i KernelImpl.obj
 0001:00002fb0       ?InitServe@CKernelImpl@serve@@MAE_NXZ 10003fb0 f   KernelImpl.obj
 0001:00003110       ?erase@?$_Tree@V?$_Tmap_traits@V?$basic_string@DU?$char_traits@D@std@@V?$allocator@D@2@@std@@PAVCServe@serve@@U?$less@V?$basic_string@DU?$char_traits@D@std@@V?$allocator@D@2@@std@@@2@V?$allocator@U?$pair@$$CBV?$basic_string@DU?$char_traits@D@std@@V?$allocator@D@2@@std@@PAVCServe@serve@@@std@@@2@$0A@@std@@@std@@QAEIABV?$basic_string@DU?$char_traits@D@std@@V?$allocator@D@2@@2@@Z 10004110 f i KernelImpl.obj
 0001:00003180       ??1?$map@V?$basic_string@DU?$char_traits@D@std@@V?$allocator@D@2@@std@@PAVCServe@serve@@U?$less@V?$basic_string@DU?$char_traits@D@std@@V?$allocator@D@2@@std@@@2@V?$allocator@U?$pair@$$CBV?$basic_string@DU?$char_traits@D@std@@V?$allocator@D@2@@std@@PAVCServe@serve@@@std@@@2@@std@@QAE@XZ 10004180 f i KernelImpl.obj
 0001:000031c0       ?UnRegisterServe@CKernelImpl@serve@@QAE_NPAVCServe@2@@Z 100041c0 f   KernelImpl.obj
 0001:00003300       ??0CKernelImpl@serve@@IAE@XZ 10004300 f   KernelImpl.obj
 0001:000033b0       ?Release@CKernelImpl@serve@@UAEGXZ 100043b0 f i KernelImpl.obj
 0001:000033d0       ??1CKernelImpl@serve@@MAE@XZ 100043d0 f   KernelImpl.obj
 0001:00003660       ?GetInstance@CKernelImpl@serve@@SAPAV12@XZ 10004660 f   KernelImpl.obj
 0001:000036e0       ??_ECKernelImpl@serve@@MAEPAXI@Z 100046e0 f i KernelImpl.obj
 0001:000036e0       ??_GCKernelImpl@serve@@MAEPAXI@Z 100046e0 f i KernelImpl.obj
 0001:00003700       _NetServiceCreate          10004700 f   KernelImpl.obj
 0001:00003800       ?Detect@CListenSocket@net@@IAEHI@Z 10004800 f   ListenSocket.obj
 0001:00003870       ??1_Sentry_base@?$basic_ostream@DU?$char_traits@D@std@@@std@@QAE@XZ 10004870 f i ListenSocket.obj
 0001:00003890       ?_Buynode@?$list@IV?$allocator@I@std@@@std@@IAEPAU_Node@?$_List_nod@IV?$allocator@I@std@@@2@PAU342@0ABI@Z 10004890 f i ListenSocket.obj
 0001:00003890       ?_Buynode@?$list@PAVIMessage@sbase@@V?$allocator@PAVIMessage@sbase@@@std@@@std@@IAEPAU_Node@?$_List_nod@PAVIMessage@sbase@@V?$allocator@PAVIMessage@sbase@@@std@@@2@PAU342@0ABQAVIMessage@sbase@@@Z 10004890 f i RouterPort.obj
 0001:000038d0       ?erase@?$list@PAVIMessage@sbase@@V?$allocator@PAVIMessage@sbase@@@std@@@std@@QAE?AV?$_Iterator@$00@12@V312@@Z 100048d0 f i RouterPort.obj
 0001:000038d0       ?erase@?$list@IV?$allocator@I@std@@@std@@QAE?AV?$_Iterator@$00@12@V312@@Z 100048d0 f i ListenSocket.obj
 0001:00003930       ??_Gfailure@ios_base@std@@UAEPAXI@Z 10004930 f i ListenSocket.obj
 0001:00003930       ??_Gruntime_error@std@@UAEPAXI@Z 10004930 f i ListenSocket.obj
 0001:00003930       ??_Eruntime_error@std@@UAEPAXI@Z 10004930 f i ListenSocket.obj
 0001:00003930       ??_Efailure@ios_base@std@@UAEPAXI@Z 10004930 f i ListenSocket.obj
 0001:00003980       ?Close@CListenSocket@net@@QAEXXZ 10004980 f   ListenSocket.obj
 0001:00003a10       ?Listen@CListenSocket@net@@QAE_NHPADHH@Z 10004a10 f   ListenSocket.obj
 0001:00003bc0       ??0runtime_error@std@@QAE@ABV?$basic_string@DU?$char_traits@D@std@@V?$allocator@D@2@@1@@Z 10004bc0 f i ListenSocket.obj
 0001:00003c30       ??1runtime_error@std@@UAE@XZ 10004c30 f i ListenSocket.obj
 0001:00003c30       ??1failure@ios_base@std@@UAE@XZ 10004c30 f i ListenSocket.obj
 0001:00003c70       ?clear@ios_base@std@@QAEXH_N@Z 10004c70 f i ListenSocket.obj
 0001:00003da0       ??0runtime_error@std@@QAE@ABV01@@Z 10004da0 f i ListenSocket.obj
 0001:00003e20       ??0failure@ios_base@std@@QAE@ABV012@@Z 10004e20 f i ListenSocket.obj
 0001:00003e40       ?clear@?$basic_ios@DU?$char_traits@D@std@@@std@@QAEXH_N@Z 10004e40 f i ListenSocket.obj
 0001:00003e60       ?push_back@?$list@IV?$allocator@I@std@@@std@@QAEXABI@Z 10004e60 f i ListenSocket.obj
 0001:00003ea0       ?flush@?$basic_ostream@DU?$char_traits@D@std@@@std@@QAEAAV12@XZ 10004ea0 f i ListenSocket.obj
 0001:00003ef0       ??0sentry@?$basic_ostream@DU?$char_traits@D@std@@@std@@QAE@AAV12@@Z 10004ef0 f i ListenSocket.obj
 0001:00003f80       ?_Osfx@?$basic_ostream@DU?$char_traits@D@std@@@std@@QAEXXZ 10004f80 f i ListenSocket.obj
 0001:00003fe0       ??1sentry@?$basic_ostream@DU?$char_traits@D@std@@@std@@QAE@XZ 10004fe0 f i ListenSocket.obj
 0001:00004050       ??$?6U?$char_traits@D@std@@@std@@YAAAV?$basic_ostream@DU?$char_traits@D@std@@@0@AAV10@PBD@Z 10005050 f i ListenSocket.obj
 0001:00004260       ?put@?$basic_ostream@DU?$char_traits@D@std@@@std@@QAEAAV12@D@Z 10005260 f i ListenSocket.obj
 0001:00004380       ?Accept@CListenSocket@net@@QAEIXZ 10005380 f   ListenSocket.obj
 0001:00004530       ??1CCriticalSection@sbase@@UAE@XZ 10005530 f i MsgRouter.obj
 0001:00004550       ?Lock@CCriticalSection@sbase@@UAEXXZ 10005550 f i MsgRouter.obj
 0001:00004560       ?Unlock@CCriticalSection@sbase@@UAEXXZ 10005560 f i MsgRouter.obj
 0001:00004570       ??_ECCriticalSection@sbase@@UAEPAXI@Z 10005570 f i MsgRouter.obj
 0001:00004570       ??_GCCriticalSection@sbase@@UAEPAXI@Z 10005570 f i MsgRouter.obj
 0001:000045a0       ??3CRouterPort@serve@@SAXPAX@Z 100055a0 f i MsgRouter.obj
 0001:000045b0       ?Release@CMsgRouter@serve@@QAEKXZ 100055b0 f   MsgRouter.obj
 0001:000045c0       ??A?$vector@PAVCRouterPort@serve@@V?$allocator@PAVCRouterPort@serve@@@std@@@std@@QAEAAPAVCRouterPort@serve@@I@Z 100055c0 f i MsgRouter.obj
 0001:000045f0       ??$_Allocate@PAVCServe@serve@@@std@@YAPAPAVCServe@serve@@IPAPAV12@@Z 100055f0 f i KernelImpl.obj
 0001:000045f0       ??$_Allocate@PAVCMsg@sbase@@@std@@YAPAPAVCMsg@sbase@@IPAPAV12@@Z 100055f0 f i NetClient.obj
 0001:000045f0       ??$_Allocate@PAVCRouterPort@serve@@@std@@YAPAPAVCRouterPort@serve@@IPAPAV12@@Z 100055f0 f i MsgRouter.obj
 0001:00004650       ?PushMsg@CMsgRouter@serve@@IAE_NKAAVIMessage@sbase@@@Z 10005650 f   MsgRouter.obj
 0001:00004760       ?PushOutMsg@CMsgRouter@serve@@QAE_NKAAVIMessage@sbase@@@Z 10005760 f   MsgRouter.obj
 0001:00004870       ?DispatchMsg@CMsgRouter@serve@@QAE_NKKAAVIMessage@sbase@@@Z 10005870 f   MsgRouter.obj
 0001:00004900       ?DispatchOutMsg@CMsgRouter@serve@@QAE_NKKAAVIMessage@sbase@@@Z 10005900 f   MsgRouter.obj
 0001:00004990       ?QueryPort@CMsgRouter@serve@@UBEPAVIPort@2@K@Z 10005990 f   MsgRouter.obj
 0001:00004a00       ?_Buynode@?$list@PAVIMessage@sbase@@V?$allocator@PAVIMessage@sbase@@@std@@@std@@IAEPAU_Node@?$_List_nod@PAVIMessage@sbase@@V?$allocator@PAVIMessage@sbase@@@std@@@2@XZ 10005a00 f i MsgRouter.obj
 0001:00004a00       ?_Buynode@?$list@IV?$allocator@I@std@@@std@@IAEPAU_Node@?$_List_nod@IV?$allocator@I@std@@@2@XZ 10005a00 f i ServeSocket.obj
 0001:00004a20       ??$fill@PAPAVCMsg@sbase@@PAV12@@std@@YAXPAPAVCMsg@sbase@@0ABQAV12@@Z 10005a20 f i NetClient.obj
 0001:00004a20       ??$fill@PAPAVCRouterPort@serve@@PAV12@@std@@YAXPAPAVCRouterPort@serve@@0ABQAV12@@Z 10005a20 f i MsgRouter.obj
 0001:00004a20       ??$fill@PAPAVCServe@serve@@PAV12@@std@@YAXPAPAVCServe@serve@@0ABQAV12@@Z 10005a20 f i KernelImpl.obj
 0001:00004a40       ??$_Umove@PAPAVCServe@serve@@@?$vector@PAVCServe@serve@@V?$allocator@PAVCServe@serve@@@std@@@std@@IAEPAPAVCServe@serve@@PAPAV23@00@Z 10005a40 f i KernelImpl.obj
 0001:00004a40       ??$_Umove@PAPAVCMsg@sbase@@@?$vector@PAVCMsg@sbase@@V?$allocator@PAVCMsg@sbase@@@std@@@std@@IAEPAPAVCMsg@sbase@@PAPAV23@00@Z 10005a40 f i NetClient.obj
 0001:00004a40       ??$_Umove@PAPAVCRouterPort@serve@@@?$vector@PAVCRouterPort@serve@@V?$allocator@PAVCRouterPort@serve@@@std@@@std@@IAEPAPAVCRouterPort@serve@@PAPAV23@00@Z 10005a40 f i MsgRouter.obj
 0001:00004a70       ??0CRouterPort@serve@@QAE@AAVCMsgRouter@1@H@Z 10005a70 f i MsgRouter.obj
 0001:00004b10       ?GetPort@CRouterPort@serve@@UBEGXZ 10005b10 f i MsgRouter.obj
 0001:00004b20       ?GetGroup@CRouterPort@serve@@UBEGXZ 10005b20 f i MsgRouter.obj
 0001:00004b30       ?Stop@CRouterPort@serve@@UAEXXZ 10005b30 f i MsgRouter.obj
 0001:00004b40       ?Start@CRouterPort@serve@@UAEXXZ 10005b40 f i MsgRouter.obj
 0001:00004b50       ?DiscardMsg@CRouterPort@serve@@UAEXPAVIMessage@sbase@@@Z 10005b50 f i MsgRouter.obj
 0001:00004b70       ??_GCRouterPort@serve@@UAEPAXI@Z 10005b70 f i MsgRouter.obj
 0001:00004b70       ??_ECRouterPort@serve@@UAEPAXI@Z 10005b70 f i MsgRouter.obj
 0001:00004b90       ??1CMsgRouter@serve@@MAE@XZ 10005b90 f   MsgRouter.obj
 0001:00004d30       ?_Ufill@?$vector@PAVCRouterPort@serve@@V?$allocator@PAVCRouterPort@serve@@@std@@@std@@IAEPAPAVCRouterPort@serve@@PAPAV34@IABQAV34@@Z 10005d30 f i MsgRouter.obj
 0001:00004d30       ?_Ufill@?$vector@PAVCServe@serve@@V?$allocator@PAVCServe@serve@@@std@@@std@@IAEPAPAVCServe@serve@@PAPAV34@IABQAV34@@Z 10005d30 f i KernelImpl.obj
 0001:00004d30       ?_Ufill@?$vector@PAVCMsg@sbase@@V?$allocator@PAVCMsg@sbase@@@std@@@std@@IAEPAPAVCMsg@sbase@@PAPAV34@IABQAV34@@Z 10005d30 f i NetClient.obj
 0001:00004d60       ??_ECMsgRouter@serve@@MAEPAXI@Z 10005d60 f i MsgRouter.obj
 0001:00004d60       ??_GCMsgRouter@serve@@MAEPAXI@Z 10005d60 f i MsgRouter.obj
 0001:00004d80       ??0CMsgRouter@serve@@IAE@H@Z 10005d80 f   MsgRouter.obj
 0001:00004e80       ?CreateNew@CMsgRouter@serve@@SAPAV12@XZ 10005e80 f   MsgRouter.obj
 0001:00004f10       ?Process@CMsg@sbase@@UAE?AW4RET_TYPE@@PAXAAVIConnect@game@@AAVIGame@5@@Z 10005f10 f i NetClient.obj
 0001:00004f30       ?Process@CMsg@sbase@@UAE?AW4RET_TYPE@@AAVIConnect@game@@AAVIGame@5@@Z 10005f30 f i NetClient.obj
 0001:00004f50       ?Process@CMsg@sbase@@UAE?AW4RET_TYPE@@KAAVIGame@game@@@Z 10005f50 f i NetClient.obj
 0001:00004f70       ??_GCMsg@sbase@@UAEPAXI@Z  10005f70 f i NetClient.obj
 0001:00004f70       ??_ECMsg@sbase@@UAEPAXI@Z  10005f70 f i NetClient.obj
 0001:00004f90       ?Process@CNetClient@@UAEXXZ 10005f90 f   NetClient.obj
 0001:00004fb0       ?DisConnect@CNetClient@@UAEXXZ 10005fb0 f   NetClient.obj
 0001:00005040       ?GetStatus@CNetClient@@UBE?AW4STATUS@INetClient@@XZ 10006040 f   NetClient.obj
 0001:00005050       ?SendMsg@CNetClient@@UAE_NPBXH@Z 10006050 f   NetClient.obj
 0001:000050a0       ?Init@?$TEncryptClient@$0CA@$0PN@$06$0BP@$0HK@$0MP@$0OF@$0DP@@net@@IAEXXZ 100060a0 f i NetClient.obj
 0001:00005130       ?Rencrypt@?$TEncryptClient@$0CA@$0PN@$06$0BP@$0HK@$0MP@$0OF@$0DP@@net@@UAEXPAEH@Z 10006130 f i NetClient.obj
 0001:00005130       ?Rencrypt@?$TEncryptServer@$0LCJNDMIE@$0MMGCEKNK@@net@@UAEXPAEH@Z 10006130 f i NetServeImpl.obj
 0001:00005140       ?Release@?$TEncryptClient@$0CA@$0PN@$06$0BP@$0HK@$0MP@$0OF@$0DP@@net@@UAEKXZ 10006140 f i NetClient.obj
 0001:00005150       ?Encrypt@?$TEncryptClient@$0CA@$0PN@$06$0BP@$0HK@$0MP@$0OF@$0DP@@net@@UAEXPAEH@Z 10006150 f i NetClient.obj
 0001:000051c0       ?Duplicate@?$TEncryptClient@$0CA@$0PN@$06$0BP@$0HK@$0MP@$0OF@$0DP@@net@@UAEPAVIEncryptor@2@XZ 100061c0 f i NetClient.obj
 0001:00005220       ?Connect@CNetClient@@UAE_NXZ 10006220 f   NetClient.obj
 0001:00005350       ??$_Unchecked_move_backward@PAPAVCRouterPort@serve@@PAPAV12@@stdext@@YAPAPAVCRouterPort@serve@@PAPAV12@00@Z 10006350 f i MsgRouter.obj
 0001:00005350       ??$_Unchecked_move_backward@PAPAVCServe@serve@@PAPAV12@@stdext@@YAPAPAVCServe@serve@@PAPAV12@00@Z 10006350 f i KernelImpl.obj
 0001:00005350       ??$_Unchecked_move_backward@PAPAVCMsg@sbase@@PAPAV12@@stdext@@YAPAPAVCMsg@sbase@@PAPAV12@00@Z 10006350 f i NetClient.obj
 0001:00005380       ??1?$vector@PAVCServe@serve@@V?$allocator@PAVCServe@serve@@@std@@@std@@QAE@XZ 10006380 f i KernelImpl.obj
 0001:00005380       ??1?$vector@PAVCRouterPort@serve@@V?$allocator@PAVCRouterPort@serve@@@std@@@std@@QAE@XZ 10006380 f i MsgRouter.obj
 0001:00005380       ??1?$vector@PAVCMsg@sbase@@V?$allocator@PAVCMsg@sbase@@@std@@@std@@QAE@XZ 10006380 f i NetClient.obj
 0001:000053b0       ??1CNetClient@@QAE@XZ      100063b0 f   NetClient.obj
 0001:00005480       ?OnEstablishSck@CNetClient@@UAEXXZ 10006480 f i NetClient.obj
 0001:00005490       ?OnCloseSck@CNetClient@@UAEXXZ 10006490 f i NetClient.obj
 0001:000054a0       ?GetMsgNum@CNetClient@@UAEJXZ 100064a0 f i NetClient.obj
 0001:000054c0       ?PickMsg@CNetClient@@UAEPAVCMsg@sbase@@XZ 100064c0 f   NetClient.obj
 0001:00005540       ?Release@CNetClient@@UAEKXZ 10006540 f   NetClient.obj
 0001:00005560       ?SetHost@CNetClient@@UAEXPBDG@Z 10006560 f   NetClient.obj
 0001:000055c0       ??0CNetClient@@IAE@XZ      100065c0 f   NetClient.obj
 0001:00005630       ?CreateNew@CNetClient@@SAPAV1@XZ 10006630 f   NetClient.obj
 0001:000056a0       ?OnRcvMsg@CNetClient@@UAEHPBXH@Z 100066a0 f   NetClient.obj
 0001:000057b0       _NetClientCreate           100067b0 f   NetClient.obj
 0001:000057c0       ??0IMessage@sbase@@QAE@PBXHH@Z 100067c0 f i NetServeImpl.obj
 0001:00005830       ?OnAcceptSck@CNetworkServeImpl@ns@@MAE_NI@Z 10006830 f   NetServeImpl.obj
 0001:00005840       ??3?$TEncryptServer@$0LCJNDMIE@$0MMGCEKNK@@net@@SAXPAX@Z 10006840 f i NetServeImpl.obj
 0001:00005850       ??8const_iterator@?$_Tree@V?$_Tmap_traits@IPAVCSocket@net@@U?$less@I@std@@V?$allocator@U?$pair@$$CBIPAVCSocket@net@@@std@@@4@$0A@@std@@@std@@QBE_NABV012@@Z 10006850 f i ServeSocket.obj
 0001:00005850       ??8const_iterator@?$_Tree@V?$_Tmap_traits@IW4PORT@serve@@U?$less@I@std@@V?$allocator@U?$pair@$$CBIW4PORT@serve@@@std@@@4@$0A@@std@@@std@@QBE_NABV012@@Z 10006850 f i NetServeImpl.obj
 0001:00005880       ?_Min@?$_Tree@V?$_Tmap_traits@IPAVCSocket@net@@U?$less@I@std@@V?$allocator@U?$pair@$$CBIPAVCSocket@net@@@std@@@4@$0A@@std@@@std@@KAPAU_Node@?$_Tree_nod@V?$_Tmap_traits@IPAVCSocket@net@@U?$less@I@std@@V?$allocator@U?$pair@$$CBIPAVCSocket@net@@@std@@@4@$0A@@std@@@2@PAU342@@Z 10006880 f i ServeSocket.obj
 0001:00005880       ?_Min@?$_Tree@V?$_Tmap_traits@GPAVCServe@serve@@U?$less@G@std@@V?$allocator@U?$pair@$$CBGPAVCServe@serve@@@std@@@4@$0A@@std@@@std@@KAPAU_Node@?$_Tree_nod@V?$_Tmap_traits@GPAVCServe@serve@@U?$less@G@std@@V?$allocator@U?$pair@$$CBGPAVCServe@serve@@@std@@@4@$0A@@std@@@2@PAU342@@Z 10006880 f i KernelImpl.obj
 0001:00005880       ?_Min@?$_Tree@V?$_Tmap_traits@IW4PORT@serve@@U?$less@I@std@@V?$allocator@U?$pair@$$CBIW4PORT@serve@@@std@@@4@$0A@@std@@@std@@KAPAU_Node@?$_Tree_nod@V?$_Tmap_traits@IW4PORT@serve@@U?$less@I@std@@V?$allocator@U?$pair@$$CBIW4PORT@serve@@@std@@@4@$0A@@std@@@2@PAU342@@Z 10006880 f i NetServeImpl.obj
 0001:000058a0       ?_Dec@const_iterator@?$_Tree@V?$_Tmap_traits@IW4PORT@serve@@U?$less@I@std@@V?$allocator@U?$pair@$$CBIW4PORT@serve@@@std@@@4@$0A@@std@@@std@@QAEXXZ 100068a0 f i NetServeImpl.obj
 0001:000058a0       ?_Dec@const_iterator@?$_Tree@V?$_Tmap_traits@IPAVCSocket@net@@U?$less@I@std@@V?$allocator@U?$pair@$$CBIPAVCSocket@net@@@std@@@4@$0A@@std@@@std@@QAEXXZ 100068a0 f i ServeSocket.obj
 0001:000058a0       ?_Dec@const_iterator@?$_Tree@V?$_Tmap_traits@GPAVCServe@serve@@U?$less@G@std@@V?$allocator@U?$pair@$$CBGPAVCServe@serve@@@std@@@4@$0A@@std@@@std@@QAEXXZ 100068a0 f i KernelImpl.obj
 0001:00005930       ?Init@?$TEncryptServer@$0LCJNDMIE@$0MMGCEKNK@@net@@IAEXXZ 10006930 f i NetServeImpl.obj
 0001:000059c0       ?ChangeCode@?$TEncryptServer@$0LCJNDMIE@$0MMGCEKNK@@net@@UAEXPBD@Z 100069c0 f i NetServeImpl.obj
 0001:000059c0       ?ChangeCode@?$TEncryptClient@$0CA@$0PN@$06$0BP@$0HK@$0MP@$0OF@$0DP@@net@@UAEXPBD@Z 100069c0 f i NetClient.obj
 0001:00005a00       ?ChangeCode@?$TEncryptClient@$0CA@$0PN@$06$0BP@$0HK@$0MP@$0OF@$0DP@@net@@UAEXK@Z 10006a00 f i NetClient.obj
 0001:00005a00       ?ChangeCode@?$TEncryptServer@$0LCJNDMIE@$0MMGCEKNK@@net@@UAEXK@Z 10006a00 f i NetServeImpl.obj
 0001:00005a30       ?Encrypt@?$TEncryptServer@$0LCJNDMIE@$0MMGCEKNK@@net@@UAEXPAEH@Z 10006a30 f i NetServeImpl.obj
 0001:00005a90       ?Decrypt@?$TEncryptClient@$0CA@$0PN@$06$0BP@$0HK@$0MP@$0OF@$0DP@@net@@UAEXPAEH@Z 10006a90 f i NetClient.obj
 0001:00005a90       ?Decrypt@?$TEncryptServer@$0LCJNDMIE@$0MMGCEKNK@@net@@UAEXPAEH@Z 10006a90 f i NetServeImpl.obj
 0001:00005aa0       ?Duplicate@?$TEncryptServer@$0LCJNDMIE@$0MMGCEKNK@@net@@UAEPAVIEncryptor@2@XZ 10006aa0 f i NetServeImpl.obj
 0001:00005b10       ?Release@?$TEncryptServer@$0LCJNDMIE@$0MMGCEKNK@@net@@UAEKXZ 10006b10 f i NetServeImpl.obj
 0001:00005b20       ?_Lrotate@?$_Tree@V?$_Tmap_traits@GPAVCServe@serve@@U?$less@G@std@@V?$allocator@U?$pair@$$CBGPAVCServe@serve@@@std@@@4@$0A@@std@@@std@@IAEXPAU_Node@?$_Tree_nod@V?$_Tmap_traits@GPAVCServe@serve@@U?$less@G@std@@V?$allocator@U?$pair@$$CBGPAVCServe@serve@@@std@@@4@$0A@@std@@@2@@Z 10006b20 f i KernelImpl.obj
 0001:00005b20       ?_Lrotate@?$_Tree@V?$_Tmap_traits@IPAVCSocket@net@@U?$less@I@std@@V?$allocator@U?$pair@$$CBIPAVCSocket@net@@@std@@@4@$0A@@std@@@std@@IAEXPAU_Node@?$_Tree_nod@V?$_Tmap_traits@IPAVCSocket@net@@U?$less@I@std@@V?$allocator@U?$pair@$$CBIPAVCSocket@net@@@std@@@4@$0A@@std@@@2@@Z 10006b20 f i ServeSocket.obj
 0001:00005b20       ?_Lrotate@?$_Tree@V?$_Tmap_traits@IW4PORT@serve@@U?$less@I@std@@V?$allocator@U?$pair@$$CBIW4PORT@serve@@@std@@@4@$0A@@std@@@std@@IAEXPAU_Node@?$_Tree_nod@V?$_Tmap_traits@IW4PORT@serve@@U?$less@I@std@@V?$allocator@U?$pair@$$CBIW4PORT@serve@@@std@@@4@$0A@@std@@@2@@Z 10006b20 f i NetServeImpl.obj
 0001:00005b70       ?Init@CNetworkServeImpl@ns@@QAE_NHPAD@Z 10006b70 f   NetServeImpl.obj
 0001:00005ca0       ??Diterator@?$_Tree@V?$_Tmap_traits@IW4PORT@serve@@U?$less@I@std@@V?$allocator@U?$pair@$$CBIW4PORT@serve@@@std@@@4@$0A@@std@@@std@@QBEAAU?$pair@$$CBIW4PORT@serve@@@2@XZ 10006ca0 f i NetServeImpl.obj
 0001:00005cd0       ?_Buynode@?$_Tree@V?$_Tmap_traits@IPAVCSocket@net@@U?$less@I@std@@V?$allocator@U?$pair@$$CBIPAVCSocket@net@@@std@@@4@$0A@@std@@@std@@IAEPAU_Node@?$_Tree_nod@V?$_Tmap_traits@IPAVCSocket@net@@U?$less@I@std@@V?$allocator@U?$pair@$$CBIPAVCSocket@net@@@std@@@4@$0A@@std@@@2@XZ 10006cd0 f i ServeSocket.obj
 0001:00005cd0       ?_Buynode@?$_Tree@V?$_Tmap_traits@IW4PORT@serve@@U?$less@I@std@@V?$allocator@U?$pair@$$CBIW4PORT@serve@@@std@@@4@$0A@@std@@@std@@IAEPAU_Node@?$_Tree_nod@V?$_Tmap_traits@IW4PORT@serve@@U?$less@I@std@@V?$allocator@U?$pair@$$CBIW4PORT@serve@@@std@@@4@$0A@@std@@@2@XZ 10006cd0 f i NetServeImpl.obj
 0001:00005cd0       ?_Buynode@?$_Tree@V?$_Tmap_traits@GPAVCServe@serve@@U?$less@G@std@@V?$allocator@U?$pair@$$CBGPAVCServe@serve@@@std@@@4@$0A@@std@@@std@@IAEPAU_Node@?$_Tree_nod@V?$_Tmap_traits@GPAVCServe@serve@@U?$less@G@std@@V?$allocator@U?$pair@$$CBGPAVCServe@serve@@@std@@@4@$0A@@std@@@2@XZ 10006cd0 f i KernelImpl.obj
 0001:00005d10       ?_Buynode@?$_Tree@V?$_Tmap_traits@IW4PORT@serve@@U?$less@I@std@@V?$allocator@U?$pair@$$CBIW4PORT@serve@@@std@@@4@$0A@@std@@@std@@IAEPAU_Node@?$_Tree_nod@V?$_Tmap_traits@IW4PORT@serve@@U?$less@I@std@@V?$allocator@U?$pair@$$CBIW4PORT@serve@@@std@@@4@$0A@@std@@@2@PAU342@00ABU?$pair@$$CBIW4PORT@serve@@@2@D@Z 10006d10 f i NetServeImpl.obj
 0001:00005d10       ?_Buynode@?$_Tree@V?$_Tmap_traits@IPAVCSocket@net@@U?$less@I@std@@V?$allocator@U?$pair@$$CBIPAVCSocket@net@@@std@@@4@$0A@@std@@@std@@IAEPAU_Node@?$_Tree_nod@V?$_Tmap_traits@IPAVCSocket@net@@U?$less@I@std@@V?$allocator@U?$pair@$$CBIPAVCSocket@net@@@std@@@4@$0A@@std@@@2@PAU342@00ABU?$pair@$$CBIPAVCSocket@net@@@2@D@Z 10006d10 f i ServeSocket.obj
 0001:00005d10       ?_Buynode@?$_Tree@V?$_Tmap_traits@GPAVCServe@serve@@U?$less@G@std@@V?$allocator@U?$pair@$$CBGPAVCServe@serve@@@std@@@4@$0A@@std@@@std@@IAEPAU_Node@?$_Tree_nod@V?$_Tmap_traits@GPAVCServe@serve@@U?$less@G@std@@V?$allocator@U?$pair@$$CBGPAVCServe@serve@@@std@@@4@$0A@@std@@@2@PAU342@00ABU?$pair@$$CBGPAVCServe@serve@@@2@D@Z 10006d10 f i KernelImpl.obj
 0001:00005d50       ?OnRcvMsg@CNetworkServeImpl@ns@@MAEHIPBDH@Z 10006d50 f   NetServeImpl.obj
 0001:00005e90       ?OnCloseSck@CNetworkServeImpl@ns@@MAEXI@Z 10006e90 f   NetServeImpl.obj
 0001:00005f60       ??1CNetworkServeImpl@ns@@UAE@XZ 10006f60 f   NetServeImpl.obj
 0001:00006070       ?QueryStatus@CNetworkServeImpl@ns@@UBE?AW4STATUS@IModule@sbase@@XZ 10007070 f i NetServeImpl.obj
 0001:00006080       ?Release@CNetworkServeImpl@ns@@UAEKXZ 10007080 f i NetServeImpl.obj
 0001:00006090       ?GetName@CNetworkServeImpl@ns@@UBEPBDXZ 10007090 f i NetServeImpl.obj
 0001:000060a0       ?IsValid@CRouterPort@serve@@UBE_NXZ 100070a0 f i MsgRouter.obj
 0001:000060a0       ?Run@CNetworkServeImpl@ns@@UAE_NXZ 100070a0 f i NetServeImpl.obj
 0001:000060a0       ?PreCreate@CNetworkServeImpl@ns@@UAE_NXZ 100070a0 f i NetServeImpl.obj
 0001:000060a0       ?Create@CNetworkServeImpl@ns@@UAE_NXZ 100070a0 f i NetServeImpl.obj
 0001:000060b0       ?Destroy@CNetworkServeImpl@ns@@UAEXXZ 100070b0 f i NetServeImpl.obj
 0001:000060b0       ??1CIniFile@sbase@@QAE@XZ  100070b0 f i base:IniFile.obj
 0001:000060b0       ?PostDestroy@CNetworkServeImpl@ns@@UAEXXZ 100070b0 f i NetServeImpl.obj
 0001:000060b0       ??3@YAXPAX0@Z              100070b0 f i KernelImpl.obj
 0001:000060c0       ?GetInterval@CNetworkServeImpl@ns@@UBEGXZ 100070c0 f i NetServeImpl.obj
 0001:000060d0       ?GetPort@CNetworkServeImpl@ns@@UBEGXZ 100070d0 f i NetServeImpl.obj
 0001:000060e0       ?CloseSock@CNetworkServeImpl@ns@@UAEXI@Z 100070e0 f i NetServeImpl.obj
 0001:000060f0       ?SendMsg@CNetworkServeImpl@ns@@UAEXAAVIMessage@sbase@@H@Z 100070f0 f i NetServeImpl.obj
 0001:00006100       ?OnProcess@CNetworkServeImpl@ns@@UAEHXZ 10007100 f   NetServeImpl.obj
 0001:00006230       ??0CNetworkServeImpl@ns@@QAE@PAVIPort@serve@@GW4TYPE@1@@Z 10007230 f   NetServeImpl.obj
 0001:00006330       ??_ECNetworkServeImpl@ns@@UAEPAXI@Z 10007330 f i NetServeImpl.obj
 0001:00006330       ??_GCNetworkServeImpl@ns@@UAEPAXI@Z 10007330 f i NetServeImpl.obj
 0001:00006350       ?ServeCreate@ns@@YAPAVIServe@serve@@PAVIRouter@3@GW4TYPE@1@@Z 10007350 f   NetServeImpl.obj
 0001:00006600       ?OnEstablishSck@CNetworkServeImpl@ns@@MAEXI@Z 10007600 f   NetServeImpl.obj
 0001:00006670       ??1CSingleLock@sbase@@QAE@XZ 10007670 f i RouterPort.obj
 0001:00006680       ?Release@CRouterPort@serve@@UAEGXZ 10007680 f   RouterPort.obj
 0001:000066a0       ?SendMsg@CRouterPort@serve@@UAE_NAAVIMessage@sbase@@H@Z 100076a0 f   RouterPort.obj
 0001:000066c0       ?SendMsgToOut@CRouterPort@serve@@UAE_NAAVIMessage@sbase@@H@Z 100076c0 f   RouterPort.obj
 0001:000066e0       ??$sprintf_s@$0IA@@@YAHAAY0IA@DPBDZZ 100076e0 f i RouterPort.obj
 0001:00006700       ?TakeMsg@CRouterPort@serve@@UAEPAVIMessage@sbase@@XZ 10007700 f   RouterPort.obj
 0001:000067c0       ?CleanMsg@CRouterPort@serve@@UAEXXZ 100077c0 f   RouterPort.obj
 0001:00006930       ?TakeMsgFromOut@CRouterPort@serve@@UAEPAVIMessage@sbase@@XZ 10007930 f   RouterPort.obj
 0001:000069f0       ??1CRouterPort@serve@@UAE@XZ 100079f0 f   RouterPort.obj
 0001:00006a60       ?_Incsize@?$list@PAVIMessage@sbase@@V?$allocator@PAVIMessage@sbase@@@std@@@std@@IAEXI@Z 10007a60 f i RouterPort.obj
 0001:00006a60       ?_Incsize@?$list@IV?$allocator@I@std@@@std@@IAEXI@Z 10007a60 f i ListenSocket.obj
 0001:00006b00       ?PushMsg@CRouterPort@serve@@UAE_NPAVIMessage@sbase@@@Z 10007b00 f   RouterPort.obj
 0001:00006c20       ?PushOutMsg@CRouterPort@serve@@QAE_NPAVIMessage@sbase@@@Z 10007c20 f   RouterPort.obj
 0001:00006ce0       ??1CServe@serve@@UAE@XZ    10007ce0 f   Serve.obj
 0001:00006d80       ?OnThreadDestroy@CServe@serve@@MAEHXZ 10007d80 f i Serve.obj
 0001:00006d80       ?OnThreadEvent@CServe@serve@@MAEHXZ 10007d80 f i Serve.obj
 0001:00006d80       ?OnThreadCreate@CServe@serve@@MAEHXZ 10007d80 f i Serve.obj
 0001:00006d90       ?OnThreadProcess@CServe@serve@@MAEHXZ 10007d90 f i Serve.obj
 0001:00006da0       ?Run@CServe@serve@@QAE_NXZ 10007da0 f   Serve.obj
 0001:00006e00       ??0CServe@serve@@QAE@PAVIServe@1@PAUHINSTANCE__@@@Z 10007e00 f   Serve.obj
 0001:00006e20       ??_GCServe@serve@@UAEPAXI@Z 10007e20 f i Serve.obj
 0001:00006e20       ??_ECServe@serve@@UAEPAXI@Z 10007e20 f i Serve.obj
 0001:00006e40       ??Bid@locale@std@@QAEIXZ   10007e40 f i ServeSocket.obj
 0001:00006e80       ?_Incref@facet@locale@std@@QAEXXZ 10007e80 f i ServeSocket.obj
 0001:00006eb0       ?_Decref@facet@locale@std@@QAEPAV123@XZ 10007eb0 f i ServeSocket.obj
 0001:00006ef0       ??1facet@locale@std@@UAE@XZ 10007ef0 f i ServeSocket.obj
 0001:00006f00       ??1locale@std@@QAE@XZ      10007f00 f i ServeSocket.obj
 0001:00006f50       ?_Getfacet@locale@std@@QBEPBVfacet@12@I@Z 10007f50 f i ServeSocket.obj
 0001:00006f90       ?getloc@ios_base@std@@QBE?AVlocale@2@XZ 10007f90 f i ServeSocket.obj
 0001:00006fd0       ?_Inc@const_iterator@?$_Tree@V?$_Tmap_traits@IPAVCSocket@net@@U?$less@I@std@@V?$allocator@U?$pair@$$CBIPAVCSocket@net@@@std@@@4@$0A@@std@@@std@@QAEXXZ 10007fd0 f i ServeSocket.obj
 0001:00006fd0       ?_Inc@const_iterator@?$_Tree@V?$_Tmap_traits@GPAVCServe@serve@@U?$less@G@std@@V?$allocator@U?$pair@$$CBGPAVCServe@serve@@@std@@@4@$0A@@std@@@std@@QAEXXZ 10007fd0 f i KernelImpl.obj
 0001:00006fd0       ?_Inc@const_iterator@?$_Tree@V?$_Tmap_traits@IW4PORT@serve@@U?$less@I@std@@V?$allocator@U?$pair@$$CBIW4PORT@serve@@@std@@@4@$0A@@std@@@std@@QAEXXZ 10007fd0 f i NetServeImpl.obj
 0001:00007040       ?_Erase@?$_Tree@V?$_Tmap_traits@IPAVCSocket@net@@U?$less@I@std@@V?$allocator@U?$pair@$$CBIPAVCSocket@net@@@std@@@4@$0A@@std@@@std@@IAEXPAU_Node@?$_Tree_nod@V?$_Tmap_traits@IPAVCSocket@net@@U?$less@I@std@@V?$allocator@U?$pair@$$CBIPAVCSocket@net@@@std@@@4@$0A@@std@@@2@@Z 10008040 f i ServeSocket.obj
 0001:00007040       ?_Erase@?$_Tree@V?$_Tmap_traits@IW4PORT@serve@@U?$less@I@std@@V?$allocator@U?$pair@$$CBIW4PORT@serve@@@std@@@4@$0A@@std@@@std@@IAEXPAU_Node@?$_Tree_nod@V?$_Tmap_traits@IW4PORT@serve@@U?$less@I@std@@V?$allocator@U?$pair@$$CBIW4PORT@serve@@@std@@@4@$0A@@std@@@2@@Z 10008040 f i NetServeImpl.obj
 0001:00007040       ?_Erase@?$_Tree@V?$_Tmap_traits@GPAVCServe@serve@@U?$less@G@std@@V?$allocator@U?$pair@$$CBGPAVCServe@serve@@@std@@@4@$0A@@std@@@std@@IAEXPAU_Node@?$_Tree_nod@V?$_Tmap_traits@GPAVCServe@serve@@U?$less@G@std@@V?$allocator@U?$pair@$$CBGPAVCServe@serve@@@std@@@4@$0A@@std@@@2@@Z 10008040 f i KernelImpl.obj
 0001:00007080       ??$_Distance2@Viterator@?$_Tree@V?$_Tmap_traits@IW4PORT@serve@@U?$less@I@std@@V?$allocator@U?$pair@$$CBIW4PORT@serve@@@std@@@4@$0A@@std@@@std@@I@std@@YAXViterator@?$_Tree@V?$_Tmap_traits@IW4PORT@serve@@U?$less@I@std@@V?$allocator@U?$pair@$$CBIW4PORT@serve@@@std@@@4@$0A@@std@@@0@0AAIUbidirectional_iterator_tag@0@@Z 10008080 f i NetServeImpl.obj
 0001:00007080       ??$_Distance2@Viterator@?$_Tree@V?$_Tmap_traits@IPAVCSocket@net@@U?$less@I@std@@V?$allocator@U?$pair@$$CBIPAVCSocket@net@@@std@@@4@$0A@@std@@@std@@I@std@@YAXViterator@?$_Tree@V?$_Tmap_traits@IPAVCSocket@net@@U?$less@I@std@@V?$allocator@U?$pair@$$CBIPAVCSocket@net@@@std@@@4@$0A@@std@@@0@0AAIUbidirectional_iterator_tag@0@@Z 10008080 f i ServeSocket.obj
 0001:000070c0       ?find@?$_Tree@V?$_Tmap_traits@IW4PORT@serve@@U?$less@I@std@@V?$allocator@U?$pair@$$CBIW4PORT@serve@@@std@@@4@$0A@@std@@@std@@QAE?AViterator@12@ABI@Z 100080c0 f i NetServeImpl.obj
 0001:000070c0       ?find@?$_Tree@V?$_Tmap_traits@IPAVCSocket@net@@U?$less@I@std@@V?$allocator@U?$pair@$$CBIPAVCSocket@net@@@std@@@4@$0A@@std@@@std@@QAE?AViterator@12@ABI@Z 100080c0 f i ServeSocket.obj
 0001:00007130       ?_Tidy@?$list@PAVIMessage@sbase@@V?$allocator@PAVIMessage@sbase@@@std@@@std@@IAEXXZ 10008130 f i MsgRouter.obj
 0001:00007130       ?_Tidy@?$list@IV?$allocator@I@std@@@std@@IAEXXZ 10008130 f i ServeSocket.obj
 0001:00007180       ?equal_range@?$_Tree@V?$_Tmap_traits@IPAVCSocket@net@@U?$less@I@std@@V?$allocator@U?$pair@$$CBIPAVCSocket@net@@@std@@@4@$0A@@std@@@std@@QAE?AU?$pair@Viterator@?$_Tree@V?$_Tmap_traits@IPAVCSocket@net@@U?$less@I@std@@V?$allocator@U?$pair@$$CBIPAVCSocket@net@@@std@@@4@$0A@@std@@@std@@V123@@2@ABI@Z 10008180 f i ServeSocket.obj
 0001:00007180       ?equal_range@?$_Tree@V?$_Tmap_traits@IW4PORT@serve@@U?$less@I@std@@V?$allocator@U?$pair@$$CBIW4PORT@serve@@@std@@@4@$0A@@std@@@std@@QAE?AU?$pair@Viterator@?$_Tree@V?$_Tmap_traits@IW4PORT@serve@@U?$less@I@std@@V?$allocator@U?$pair@$$CBIW4PORT@serve@@@std@@@4@$0A@@std@@@std@@V123@@2@ABI@Z 10008180 f i NetServeImpl.obj
 0001:000071e0       ??1_Locinfo@std@@QAE@XZ    100081e0 f i ServeSocket.obj
 0001:000072c0       ?CloseAll@CServeSocket@net@@IAEXXZ 100082c0 f   ServeSocket.obj
 0001:000073f0       ?GetSocket@CServeSocket@net@@IAEPAVCSocket@2@I@Z 100083f0 f   ServeSocket.obj
 0001:00007450       ?GetSocketIP@CServeSocket@net@@UAEPBDI@Z 10008450 f   ServeSocket.obj
 0001:00007470       ?QueryEncryptor@CServeSocket@net@@UAEPAVIEncryptor@2@IW4ENCRYPTOR_TYPE@2@@Z 10008470 f   ServeSocket.obj
 0001:00007490       ?ChgEncryptor@CServeSocket@net@@UAEXIW4ENCRYPTOR_TYPE@2@PAVIEncryptor@2@@Z 10008490 f   ServeSocket.obj
 0001:000074e0       ??1?$list@PAVIMessage@sbase@@V?$allocator@PAVIMessage@sbase@@@std@@@std@@QAE@XZ 100084e0 f i MsgRouter.obj
 0001:000074e0       ??1?$list@IV?$allocator@I@std@@@std@@QAE@XZ 100084e0 f i ServeSocket.obj
 0001:000074f0       ??1CListenSocket@net@@UAE@XZ 100084f0 f i ServeSocket.obj
 0001:00007550       ??_ECListenSocket@net@@UAEPAXI@Z 10008550 f i ServeSocket.obj
 0001:00007550       ??_GCListenSocket@net@@UAEPAXI@Z 10008550 f i ServeSocket.obj
 0001:00007570       ?CloseSocket@CServeSocket@net@@UAE_NI@Z 10008570 f   ServeSocket.obj
 0001:00007590       ?erase@?$_Tree@V?$_Tmap_traits@IW4PORT@serve@@U?$less@I@std@@V?$allocator@U?$pair@$$CBIW4PORT@serve@@@std@@@4@$0A@@std@@@std@@QAE?AViterator@12@V312@@Z 10008590 f i NetServeImpl.obj
 0001:00007590       ?erase@?$_Tree@V?$_Tmap_traits@IPAVCSocket@net@@U?$less@I@std@@V?$allocator@U?$pair@$$CBIPAVCSocket@net@@@std@@@4@$0A@@std@@@std@@QAE?AViterator@12@V312@@Z 10008590 f i ServeSocket.obj
 0001:00007590       ?erase@?$_Tree@V?$_Tmap_traits@GPAVCServe@serve@@U?$less@G@std@@V?$allocator@U?$pair@$$CBGPAVCServe@serve@@@std@@@4@$0A@@std@@@std@@QAE?AViterator@12@V312@@Z 10008590 f i KernelImpl.obj
 0001:00007850       ?_Insert@?$_Tree@V?$_Tmap_traits@IPAVCSocket@net@@U?$less@I@std@@V?$allocator@U?$pair@$$CBIPAVCSocket@net@@@std@@@4@$0A@@std@@@std@@IAE?AViterator@12@_NPAU_Node@?$_Tree_nod@V?$_Tmap_traits@IPAVCSocket@net@@U?$less@I@std@@V?$allocator@U?$pair@$$CBIPAVCSocket@net@@@std@@@4@$0A@@std@@@2@ABU?$pair@$$CBIPAVCSocket@net@@@2@@Z 10008850 f i ServeSocket.obj
 0001:00007850       ?_Insert@?$_Tree@V?$_Tmap_traits@IW4PORT@serve@@U?$less@I@std@@V?$allocator@U?$pair@$$CBIW4PORT@serve@@@std@@@4@$0A@@std@@@std@@IAE?AViterator@12@_NPAU_Node@?$_Tree_nod@V?$_Tmap_traits@IW4PORT@serve@@U?$less@I@std@@V?$allocator@U?$pair@$$CBIW4PORT@serve@@@std@@@4@$0A@@std@@@2@ABU?$pair@$$CBIW4PORT@serve@@@2@@Z 10008850 f i NetServeImpl.obj
 0001:00007850       ?_Insert@?$_Tree@V?$_Tmap_traits@GPAVCServe@serve@@U?$less@G@std@@V?$allocator@U?$pair@$$CBGPAVCServe@serve@@@std@@@4@$0A@@std@@@std@@IAE?AViterator@12@_NPAU_Node@?$_Tree_nod@V?$_Tmap_traits@GPAVCServe@serve@@U?$less@G@std@@V?$allocator@U?$pair@$$CBGPAVCServe@serve@@@std@@@4@$0A@@std@@@2@ABU?$pair@$$CBGPAVCServe@serve@@@2@@Z 10008850 f i KernelImpl.obj
 0001:00007a50       ??0_Locinfo@std@@QAE@PBD@Z 10008a50 f i ServeSocket.obj
 0001:00007b20       ?erase@?$_Tree@V?$_Tmap_traits@IPAVCSocket@net@@U?$less@I@std@@V?$allocator@U?$pair@$$CBIPAVCSocket@net@@@std@@@4@$0A@@std@@@std@@QAE?AViterator@12@V312@0@Z 10008b20 f i ServeSocket.obj
 0001:00007b20       ?erase@?$_Tree@V?$_Tmap_traits@GPAVCServe@serve@@U?$less@G@std@@V?$allocator@U?$pair@$$CBGPAVCServe@serve@@@std@@@4@$0A@@std@@@std@@QAE?AViterator@12@V312@0@Z 10008b20 f i KernelImpl.obj
 0001:00007b20       ?erase@?$_Tree@V?$_Tmap_traits@IW4PORT@serve@@U?$less@I@std@@V?$allocator@U?$pair@$$CBIW4PORT@serve@@@std@@@4@$0A@@std@@@std@@QAE?AViterator@12@V312@0@Z 10008b20 f i NetServeImpl.obj
 0001:00007bf0       ?insert@?$_Tree@V?$_Tmap_traits@IPAVCSocket@net@@U?$less@I@std@@V?$allocator@U?$pair@$$CBIPAVCSocket@net@@@std@@@4@$0A@@std@@@std@@QAE?AU?$pair@Viterator@?$_Tree@V?$_Tmap_traits@IPAVCSocket@net@@U?$less@I@std@@V?$allocator@U?$pair@$$CBIPAVCSocket@net@@@std@@@4@$0A@@std@@@std@@_N@2@ABU?$pair@$$CBIPAVCSocket@net@@@2@@Z 10008bf0 f i ServeSocket.obj
 0001:00007bf0       ?insert@?$_Tree@V?$_Tmap_traits@IW4PORT@serve@@U?$less@I@std@@V?$allocator@U?$pair@$$CBIW4PORT@serve@@@std@@@4@$0A@@std@@@std@@QAE?AU?$pair@Viterator@?$_Tree@V?$_Tmap_traits@IW4PORT@serve@@U?$less@I@std@@V?$allocator@U?$pair@$$CBIW4PORT@serve@@@std@@@4@$0A@@std@@@std@@_N@2@ABU?$pair@$$CBIW4PORT@serve@@@2@@Z 10008bf0 f i NetServeImpl.obj
 0001:00007cb0       ??0?$num_put@DV?$ostreambuf_iterator@DU?$char_traits@D@std@@@std@@@std@@QAE@I@Z 10008cb0 f i ServeSocket.obj
 0001:00007d50       ??_E?$num_put@DV?$ostreambuf_iterator@DU?$char_traits@D@std@@@std@@@std@@MAEPAXI@Z 10008d50 f i ServeSocket.obj
 0001:00007d50       ??_Efacet@locale@std@@UAEPAXI@Z 10008d50 f i ServeSocket.obj
 0001:00007d50       ??_Gfacet@locale@std@@UAEPAXI@Z 10008d50 f i ServeSocket.obj
 0001:00007d50       ??_G?$num_put@DV?$ostreambuf_iterator@DU?$char_traits@D@std@@@std@@@std@@MAEPAXI@Z 10008d50 f i ServeSocket.obj
 0001:00007d70       ?_Ifmt@?$num_put@DV?$ostreambuf_iterator@DU?$char_traits@D@std@@@std@@@std@@ABAPADPADPBDH@Z 10008d70 f i ServeSocket.obj
 0001:00007e10       ?_Tidy@?$numpunct@D@std@@AAEXXZ 10008e10 f i ServeSocket.obj
 0001:00007e40       ?_Chassign@?$basic_string@DU?$char_traits@D@std@@V?$allocator@D@2@@std@@IAEXIID@Z 10008e40 f i ServeSocket.obj
 0001:00007ea0       ??$_Maklocstr@D@std@@YAPADPBDPADABU_Cvtvec@@@Z 10008ea0 f i ServeSocket.obj
 0001:00007ef0       ?_Init@?$numpunct@D@std@@IAEXABV_Locinfo@2@@Z 10008ef0 f i ServeSocket.obj
 0001:00007fd0       ?_Rep@?$num_put@DV?$ostreambuf_iterator@DU?$char_traits@D@std@@@std@@@std@@ABA?AV?$ostreambuf_iterator@DU?$char_traits@D@std@@@2@V32@DI@Z 10008fd0 f i ServeSocket.obj
 0001:00008050       ?_Put@?$num_put@DV?$ostreambuf_iterator@DU?$char_traits@D@std@@@std@@@std@@ABA?AV?$ostreambuf_iterator@DU?$char_traits@D@std@@@2@V32@PBDI@Z 10009050 f i ServeSocket.obj
 0001:00008050       ?_Putc@?$num_put@DV?$ostreambuf_iterator@DU?$char_traits@D@std@@@std@@@std@@ABA?AV?$ostreambuf_iterator@DU?$char_traits@D@std@@@2@V32@PBDI@Z 10009050 f i ServeSocket.obj
 0001:000080d0       ?_Putgrouped@?$num_put@DV?$ostreambuf_iterator@DU?$char_traits@D@std@@@std@@@std@@ABA?AV?$ostreambuf_iterator@DU?$char_traits@D@std@@@2@V32@PBDID@Z 100090d0 f i ServeSocket.obj
 0001:000081a0       ?falsename@?$numpunct@D@std@@QBE?AV?$basic_string@DU?$char_traits@D@std@@V?$allocator@D@2@@2@XZ 100091a0 f i ServeSocket.obj
 0001:000081c0       ?truename@?$numpunct@D@std@@QBE?AV?$basic_string@DU?$char_traits@D@std@@V?$allocator@D@2@@2@XZ 100091c0 f i ServeSocket.obj
 0001:000081e0       ?append@?$basic_string@DU?$char_traits@D@std@@V?$allocator@D@2@@std@@QAEAAV12@ID@Z 100091e0 f i ServeSocket.obj
 0001:00008290       ?insert@?$basic_string@DU?$char_traits@D@std@@V?$allocator@D@2@@std@@QAEAAV12@IID@Z 10009290 f i ServeSocket.obj
 0001:00008390       ?grouping@?$numpunct@D@std@@QBE?AV?$basic_string@DU?$char_traits@D@std@@V?$allocator@D@2@@2@XZ 10009390 f i ServeSocket.obj
 0001:000083b0       ??0?$numpunct@D@std@@QAE@I@Z 100093b0 f i ServeSocket.obj
 0001:00008470       ?do_decimal_point@?$numpunct@D@std@@MBEDXZ 10009470 f i ServeSocket.obj
 0001:00008480       ?do_thousands_sep@?$numpunct@D@std@@MBEDXZ 10009480 f i ServeSocket.obj
 0001:00008490       ??_E?$numpunct@D@std@@MAEPAXI@Z 10009490 f i ServeSocket.obj
 0001:00008490       ??_G?$numpunct@D@std@@MAEPAXI@Z 10009490 f i ServeSocket.obj
 0001:000084e0       ?do_grouping@?$numpunct@D@std@@MBE?AV?$basic_string@DU?$char_traits@D@std@@V?$allocator@D@2@@2@XZ 100094e0 f i ServeSocket.obj
 0001:00008530       ?do_falsename@?$numpunct@D@std@@MBE?AV?$basic_string@DU?$char_traits@D@std@@V?$allocator@D@2@@2@XZ 10009530 f i ServeSocket.obj
 0001:00008580       ?do_truename@?$numpunct@D@std@@MBE?AV?$basic_string@DU?$char_traits@D@std@@V?$allocator@D@2@@2@XZ 10009580 f i ServeSocket.obj
 0001:000085d0       ?erase@?$_Tree@V?$_Tmap_traits@IW4PORT@serve@@U?$less@I@std@@V?$allocator@U?$pair@$$CBIW4PORT@serve@@@std@@@4@$0A@@std@@@std@@QAEIABI@Z 100095d0 f i NetServeImpl.obj
 0001:000085d0       ?erase@?$_Tree@V?$_Tmap_traits@IPAVCSocket@net@@U?$less@I@std@@V?$allocator@U?$pair@$$CBIPAVCSocket@net@@@std@@@4@$0A@@std@@@std@@QAEIABI@Z 100095d0 f i ServeSocket.obj
 0001:00008640       ?insert@?$_Tree@V?$_Tmap_traits@IPAVCSocket@net@@U?$less@I@std@@V?$allocator@U?$pair@$$CBIPAVCSocket@net@@@std@@@4@$0A@@std@@@std@@QAE?AViterator@12@V312@ABU?$pair@$$CBIPAVCSocket@net@@@2@@Z 10009640 f i ServeSocket.obj
 0001:00008640       ?insert@?$_Tree@V?$_Tmap_traits@IW4PORT@serve@@U?$less@I@std@@V?$allocator@U?$pair@$$CBIW4PORT@serve@@@std@@@4@$0A@@std@@@std@@QAE?AViterator@12@V312@ABU?$pair@$$CBIW4PORT@serve@@@2@@Z 10009640 f i NetServeImpl.obj
 0001:00008800       ?_Getcat@?$num_put@DV?$ostreambuf_iterator@DU?$char_traits@D@std@@@std@@@std@@SAIPAPBVfacet@locale@2@@Z 10009800 f i ServeSocket.obj
 0001:00008870       ?_Getcat@?$numpunct@D@std@@SAIPAPBVfacet@locale@2@@Z 10009870 f i ServeSocket.obj
 0001:000088e0       ?CleanUp@CServeSocket@net@@QAEXI@Z 100098e0 f i ServeSocket.obj
 0001:00008960       ??1?$map@GPAVCServe@serve@@U?$less@G@std@@V?$allocator@U?$pair@$$CBGPAVCServe@serve@@@std@@@4@@std@@QAE@XZ 10009960 f i KernelImpl.obj
 0001:00008960       ??1?$map@IW4PORT@serve@@U?$less@I@std@@V?$allocator@U?$pair@$$CBIW4PORT@serve@@@std@@@4@@std@@QAE@XZ 10009960 f i NetServeImpl.obj
 0001:00008960       ??1?$map@IPAVCSocket@net@@U?$less@I@std@@V?$allocator@U?$pair@$$CBIPAVCSocket@net@@@std@@@4@@std@@QAE@XZ 10009960 f i ServeSocket.obj
 0001:000089a0       ??1CServeSocket@net@@UAE@XZ 100099a0 f   ServeSocket.obj
 0001:00008ac0       ?Release@CServeSocket@net@@UAEKXZ 10009ac0 f i ServeSocket.obj
 0001:00008ad0       ?RefuseConnect@CServeSocket@net@@UAEX_N@Z 10009ad0 f i ServeSocket.obj
 0001:00008ae0       ?GetSocketAmount@CServeSocket@net@@UAEHXZ 10009ae0 f i ServeSocket.obj
 0001:00008af0       ??A?$map@IW4PORT@serve@@U?$less@I@std@@V?$allocator@U?$pair@$$CBIW4PORT@serve@@@std@@@4@@std@@QAEAAW4PORT@serve@@ABI@Z 10009af0 f i NetServeImpl.obj
 0001:00008af0       ??A?$map@IPAVCSocket@net@@U?$less@I@std@@V?$allocator@U?$pair@$$CBIPAVCSocket@net@@@std@@@4@@std@@QAEAAPAVCSocket@net@@ABI@Z 10009af0 f i ServeSocket.obj
 0001:00008b70       ??$use_facet@V?$num_put@DV?$ostreambuf_iterator@DU?$char_traits@D@std@@@std@@@std@@@std@@YAABV?$num_put@DV?$ostreambuf_iterator@DU?$char_traits@D@std@@@std@@@0@ABVlocale@0@@Z 10009b70 f i ServeSocket.obj
 0001:00008ca0       ??$use_facet@V?$numpunct@D@std@@@std@@YAABV?$numpunct@D@0@ABVlocale@0@@Z 10009ca0 f i ServeSocket.obj
 0001:00008dd0       ??0CServeSocket@net@@QAE@AAVIServeSocketEvent@1@PAVIEncryptor@1@1@Z 10009dd0 f   ServeSocket.obj
 0001:00008ec0       ??_ECServeSocket@net@@UAEPAXI@Z 10009ec0 f i ServeSocket.obj
 0001:00008ec0       ??_GCServeSocket@net@@UAEPAXI@Z 10009ec0 f i ServeSocket.obj
 0001:00008ee0       ?ServeSocketCreate@net@@YAPAVIServeSocket@1@AAVIServeSocketEvent@1@HPADPAVIEncryptor@1@2@Z 10009ee0 f   ServeSocket.obj
 0001:00009080       ?do_put@?$num_put@DV?$ostreambuf_iterator@DU?$char_traits@D@std@@@std@@@std@@MBE?AV?$ostreambuf_iterator@DU?$char_traits@D@std@@@2@V32@AAVios_base@2@D_N@Z 1000a080 f i ServeSocket.obj
 0001:000092d0       ?_Fput@?$num_put@DV?$ostreambuf_iterator@DU?$char_traits@D@std@@@std@@@std@@ABA?AV?$ostreambuf_iterator@DU?$char_traits@D@std@@@2@V32@AAVios_base@2@DPBDIIII@Z 1000a2d0 f i ServeSocket.obj
 0001:000099e0       ?_Iput@?$num_put@DV?$ostreambuf_iterator@DU?$char_traits@D@std@@@std@@@std@@ABA?AV?$ostreambuf_iterator@DU?$char_traits@D@std@@@2@V32@AAVios_base@2@DPADI@Z 1000a9e0 f i ServeSocket.obj
 0001:00009d40       ??6?$basic_ostream@DU?$char_traits@D@std@@@std@@QAEAAV01@I@Z 1000ad40 f i ServeSocket.obj
 0001:00009e90       ?do_put@?$num_put@DV?$ostreambuf_iterator@DU?$char_traits@D@std@@@std@@@std@@MBE?AV?$ostreambuf_iterator@DU?$char_traits@D@std@@@2@V32@AAVios_base@2@DJ@Z 1000ae90 f i ServeSocket.obj
 0001:00009f30       ?do_put@?$num_put@DV?$ostreambuf_iterator@DU?$char_traits@D@std@@@std@@@std@@MBE?AV?$ostreambuf_iterator@DU?$char_traits@D@std@@@2@V32@AAVios_base@2@DK@Z 1000af30 f i ServeSocket.obj
 0001:00009fd0       ?do_put@?$num_put@DV?$ostreambuf_iterator@DU?$char_traits@D@std@@@std@@@std@@MBE?AV?$ostreambuf_iterator@DU?$char_traits@D@std@@@2@V32@AAVios_base@2@D_J@Z 1000afd0 f i ServeSocket.obj
 0001:0000a070       ?do_put@?$num_put@DV?$ostreambuf_iterator@DU?$char_traits@D@std@@@std@@@std@@MBE?AV?$ostreambuf_iterator@DU?$char_traits@D@std@@@2@V32@AAVios_base@2@D_K@Z 1000b070 f i ServeSocket.obj
 0001:0000a110       ?do_put@?$num_put@DV?$ostreambuf_iterator@DU?$char_traits@D@std@@@std@@@std@@MBE?AV?$ostreambuf_iterator@DU?$char_traits@D@std@@@2@V32@AAVios_base@2@DN@Z 1000b110 f i ServeSocket.obj
 0001:0000a300       ?do_put@?$num_put@DV?$ostreambuf_iterator@DU?$char_traits@D@std@@@std@@@std@@MBE?AV?$ostreambuf_iterator@DU?$char_traits@D@std@@@2@V32@AAVios_base@2@DO@Z 1000b300 f i ServeSocket.obj
 0001:0000a4f0       ?do_put@?$num_put@DV?$ostreambuf_iterator@DU?$char_traits@D@std@@@std@@@std@@MBE?AV?$ostreambuf_iterator@DU?$char_traits@D@std@@@2@V32@AAVios_base@2@DPBX@Z 1000b4f0 f i ServeSocket.obj
 0001:0000a570       ?SendMsg@CServeSocket@net@@UAE_NIPBXH@Z 1000b570 f   ServeSocket.obj
 0001:0000a7e0       ?Process@CServeSocket@net@@UAEXXZ 1000b7e0 f   ServeSocket.obj
 0001:0000ac20       _DllMain@12                1000bc20 f   Socket.obj
 0001:0000ac30       ?ClrPacket@CSocket@net@@QAEXH@Z 1000bc30 f   Socket.obj
 0001:0000ac80       ?SocketInit@CSocket@net@@SA_NXZ 1000bc80 f   Socket.obj
 0001:0000ad20       ?DumpError@CSocket@net@@SAHPBD@Z 1000bd20 f   Socket.obj
 0001:0000ad60       ?QueryEncryptor@CSocket@net@@QAEPAVIEncryptor@2@W4ENCRYPTOR_TYPE@2@@Z 1000bd60 f   Socket.obj
 0001:0000ad90       ?ChgEncryptor@CSocket@net@@QAEXW4ENCRYPTOR_TYPE@2@PAVIEncryptor@2@@Z 1000bd90 f   Socket.obj
 0001:0000af90       ?Close@CSocket@net@@QAEXXZ 1000bf90 f   Socket.obj
 0001:0000afe0       ?Send@CSocket@net@@QAE_NPBXH@Z 1000bfe0 f   Socket.obj
 0001:0000b0d0       ?Recv@CSocket@net@@QAEPBDAAH_N@Z 1000c0d0 f   Socket.obj
 0001:0000b260       ??0CSocket@net@@QAE@IPAVIEncryptor@1@0@Z 1000c260 f   Socket.obj
 0001:0000b320       ??1CSocket@net@@UAE@XZ     1000c320 f   Socket.obj
 0001:0000b470       ??_ECSocket@net@@UAEPAXI@Z 1000c470 f i Socket.obj
 0001:0000b470       ??_GCSocket@net@@UAEPAXI@Z 1000c470 f i Socket.obj
 0001:0000b490       ?GetPeerIP@CSocket@net@@QAEPBDXZ 1000c490 f   Socket.obj
 0001:0000b570       ?Alloc@CHeap@sbase@@QAEPAXI@Z 1000c570 f   base:Heap.obj
 0001:0000b5c0       ?IsValidPt@CHeap@sbase@@QAE_NPAX@Z 1000c5c0 f   base:Heap.obj
 0001:0000b610       ?Free@CHeap@sbase@@QAEXPAX@Z 1000c610 f   base:Heap.obj
 0001:0000b670       ??1CHeap@sbase@@QAE@XZ     1000c670 f   base:Heap.obj
 0001:0000b730       ??0CHeap@sbase@@QAE@PBD@Z  1000c730 f   base:Heap.obj
 0001:0000b7c0       ?StrCopy@sbase@@YA_NPADPBDI@Z 1000c7c0 f   base:SvrBase.obj
 0001:0000b820       ?_Max@?$_Tree@V?$_Tmap_traits@KV?$basic_string@DU?$char_traits@D@std@@V?$allocator@D@2@@std@@U?$less@K@2@V?$allocator@U?$pair@$$CBKV?$basic_string@DU?$char_traits@D@std@@V?$allocator@D@2@@std@@@std@@@2@$0A@@std@@@std@@KAPAU_Node@?$_Tree_nod@V?$_Tmap_traits@KV?$basic_string@DU?$char_traits@D@std@@V?$allocator@D@2@@std@@U?$less@K@2@V?$allocator@U?$pair@$$CBKV?$basic_string@DU?$char_traits@D@std@@V?$allocator@D@2@@std@@@std@@@2@$0A@@std@@@2@PAU342@@Z 1000c820 f i base:SvrBase.obj
 0001:0000b820       ?_Max@?$_Tree@V?$_Tmap_traits@V?$basic_string@DU?$char_traits@D@std@@V?$allocator@D@2@@std@@PAVCServe@serve@@U?$less@V?$basic_string@DU?$char_traits@D@std@@V?$allocator@D@2@@std@@@2@V?$allocator@U?$pair@$$CBV?$basic_string@DU?$char_traits@D@std@@V?$allocator@D@2@@std@@PAVCServe@serve@@@std@@@2@$0A@@std@@@std@@KAPAU_Node@?$_Tree_nod@V?$_Tmap_traits@V?$basic_string@DU?$char_traits@D@std@@V?$allocator@D@2@@std@@PAVCServe@serve@@U?$less@V?$basic_string@DU?$char_traits@D@std@@V?$allocator@D@2@@std@@@2@V?$allocator@U?$pair@$$CBV?$basic_string@DU?$char_traits@D@std@@V?$allocator@D@2@@std@@PAVCServe@serve@@@std@@@2@$0A@@std@@@2@PAU342@@Z 1000c820 f i KernelImpl.obj
 0001:0000b840       ?_Inc@const_iterator@?$_Tree@V?$_Tmap_traits@V?$basic_string@DU?$char_traits@D@std@@V?$allocator@D@2@@std@@PAVCServe@serve@@U?$less@V?$basic_string@DU?$char_traits@D@std@@V?$allocator@D@2@@std@@@2@V?$allocator@U?$pair@$$CBV?$basic_string@DU?$char_traits@D@std@@V?$allocator@D@2@@std@@PAVCServe@serve@@@std@@@2@$0A@@std@@@std@@QAEXXZ 1000c840 f i KernelImpl.obj
 0001:0000b840       ?_Inc@const_iterator@?$_Tree@V?$_Tmap_traits@KV?$basic_string@DU?$char_traits@D@std@@V?$allocator@D@2@@std@@U?$less@K@2@V?$allocator@U?$pair@$$CBKV?$basic_string@DU?$char_traits@D@std@@V?$allocator@D@2@@std@@@std@@@2@$0A@@std@@@std@@QAEXXZ 1000c840 f i base:SvrBase.obj
 0001:0000b8b0       ??$sprintf_s@$0BAA@@@YAHAAY0BAA@DPBDZZ 1000c8b0 f i base:SvrBase.obj
 0001:0000b8d0       ?LogSave@sbase@@YAXPBD0ZZ  1000c8d0 f   base:SvrBase.obj
 0001:0000ba80       ?SysLogSave@sbase@@YAXPBDZZ 1000ca80 f   base:SvrBase.obj
 0001:0000bab0       ?DebugMsg@sbase@@YAXPBDZZ  1000cab0 f   base:SvrBase.obj
 0001:0000bb20       ?_Lrotate@?$_Tree@V?$_Tmap_traits@V?$basic_string@DU?$char_traits@D@std@@V?$allocator@D@2@@std@@PAVCServe@serve@@U?$less@V?$basic_string@DU?$char_traits@D@std@@V?$allocator@D@2@@std@@@2@V?$allocator@U?$pair@$$CBV?$basic_string@DU?$char_traits@D@std@@V?$allocator@D@2@@std@@PAVCServe@serve@@@std@@@2@$0A@@std@@@std@@IAEXPAU_Node@?$_Tree_nod@V?$_Tmap_traits@V?$basic_string@DU?$char_traits@D@std@@V?$allocator@D@2@@std@@PAVCServe@serve@@U?$less@V?$basic_string@DU?$char_traits@D@std@@V?$allocator@D@2@@std@@@2@V?$allocator@U?$pair@$$CBV?$basic_string@DU?$char_traits@D@std@@V?$allocator@D@2@@std@@PAVCServe@serve@@@std@@@2@$0A@@std@@@2@@Z 1000cb20 f i KernelImpl.obj
 0001:0000bb20       ?_Lrotate@?$_Tree@V?$_Tmap_traits@KV?$basic_string@DU?$char_traits@D@std@@V?$allocator@D@2@@std@@U?$less@K@2@V?$allocator@U?$pair@$$CBKV?$basic_string@DU?$char_traits@D@std@@V?$allocator@D@2@@std@@@std@@@2@$0A@@std@@@std@@IAEXPAU_Node@?$_Tree_nod@V?$_Tmap_traits@KV?$basic_string@DU?$char_traits@D@std@@V?$allocator@D@2@@std@@U?$less@K@2@V?$allocator@U?$pair@$$CBKV?$basic_string@DU?$char_traits@D@std@@V?$allocator@D@2@@std@@@std@@@2@$0A@@std@@@2@@Z 1000cb20 f i base:SvrBase.obj
 0001:0000bb70       ?_Rrotate@?$_Tree@V?$_Tmap_traits@KV?$basic_string@DU?$char_traits@D@std@@V?$allocator@D@2@@std@@U?$less@K@2@V?$allocator@U?$pair@$$CBKV?$basic_string@DU?$char_traits@D@std@@V?$allocator@D@2@@std@@@std@@@2@$0A@@std@@@std@@IAEXPAU_Node@?$_Tree_nod@V?$_Tmap_traits@KV?$basic_string@DU?$char_traits@D@std@@V?$allocator@D@2@@std@@U?$less@K@2@V?$allocator@U?$pair@$$CBKV?$basic_string@DU?$char_traits@D@std@@V?$allocator@D@2@@std@@@std@@@2@$0A@@std@@@2@@Z 1000cb70 f i base:SvrBase.obj
 0001:0000bb70       ?_Rrotate@?$_Tree@V?$_Tmap_traits@V?$basic_string@DU?$char_traits@D@std@@V?$allocator@D@2@@std@@PAVCServe@serve@@U?$less@V?$basic_string@DU?$char_traits@D@std@@V?$allocator@D@2@@std@@@2@V?$allocator@U?$pair@$$CBV?$basic_string@DU?$char_traits@D@std@@V?$allocator@D@2@@std@@PAVCServe@serve@@@std@@@2@$0A@@std@@@std@@IAEXPAU_Node@?$_Tree_nod@V?$_Tmap_traits@V?$basic_string@DU?$char_traits@D@std@@V?$allocator@D@2@@std@@PAVCServe@serve@@U?$less@V?$basic_string@DU?$char_traits@D@std@@V?$allocator@D@2@@std@@@2@V?$allocator@U?$pair@$$CBV?$basic_string@DU?$char_traits@D@std@@V?$allocator@D@2@@std@@PAVCServe@serve@@@std@@@2@$0A@@std@@@2@@Z 1000cb70 f i KernelImpl.obj
 0001:0000bbd0       ?_Buynode@?$_Tree@V?$_Tmap_traits@V?$basic_string@DU?$char_traits@D@std@@V?$allocator@D@2@@std@@PAVCServe@serve@@U?$less@V?$basic_string@DU?$char_traits@D@std@@V?$allocator@D@2@@std@@@2@V?$allocator@U?$pair@$$CBV?$basic_string@DU?$char_traits@D@std@@V?$allocator@D@2@@std@@PAVCServe@serve@@@std@@@2@$0A@@std@@@std@@IAEPAU_Node@?$_Tree_nod@V?$_Tmap_traits@V?$basic_string@DU?$char_traits@D@std@@V?$allocator@D@2@@std@@PAVCServe@serve@@U?$less@V?$basic_string@DU?$char_traits@D@std@@V?$allocator@D@2@@std@@@2@V?$allocator@U?$pair@$$CBV?$basic_string@DU?$char_traits@D@std@@V?$allocator@D@2@@std@@PAVCServe@serve@@@std@@@2@$0A@@std@@@2@XZ 1000cbd0 f i KernelImpl.obj
 0001:0000bbd0       ?_Buynode@?$_Tree@V?$_Tmap_traits@KV?$basic_string@DU?$char_traits@D@std@@V?$allocator@D@2@@std@@U?$less@K@2@V?$allocator@U?$pair@$$CBKV?$basic_string@DU?$char_traits@D@std@@V?$allocator@D@2@@std@@@std@@@2@$0A@@std@@@std@@IAEPAU_Node@?$_Tree_nod@V?$_Tmap_traits@KV?$basic_string@DU?$char_traits@D@std@@V?$allocator@D@2@@std@@U?$less@K@2@V?$allocator@U?$pair@$$CBKV?$basic_string@DU?$char_traits@D@std@@V?$allocator@D@2@@std@@@std@@@2@$0A@@std@@@2@XZ 1000cbd0 f i base:SvrBase.obj
 0001:0000bc10       ?erase@?$_Tree@V?$_Tmap_traits@KV?$basic_string@DU?$char_traits@D@std@@V?$allocator@D@2@@std@@U?$less@K@2@V?$allocator@U?$pair@$$CBKV?$basic_string@DU?$char_traits@D@std@@V?$allocator@D@2@@std@@@std@@@2@$0A@@std@@@std@@QAE?AViterator@12@V312@@Z 1000cc10 f i base:SvrBase.obj
 0001:0000bf00       ?_Erase@?$_Tree@V?$_Tmap_traits@KV?$basic_string@DU?$char_traits@D@std@@V?$allocator@D@2@@std@@U?$less@K@2@V?$allocator@U?$pair@$$CBKV?$basic_string@DU?$char_traits@D@std@@V?$allocator@D@2@@std@@@std@@@2@$0A@@std@@@std@@IAEXPAU_Node@?$_Tree_nod@V?$_Tmap_traits@KV?$basic_string@DU?$char_traits@D@std@@V?$allocator@D@2@@std@@U?$less@K@2@V?$allocator@U?$pair@$$CBKV?$basic_string@DU?$char_traits@D@std@@V?$allocator@D@2@@std@@@std@@@2@$0A@@std@@@2@@Z 1000cf00 f i base:SvrBase.obj
 0001:0000bf60       ?erase@?$_Tree@V?$_Tmap_traits@KV?$basic_string@DU?$char_traits@D@std@@V?$allocator@D@2@@std@@U?$less@K@2@V?$allocator@U?$pair@$$CBKV?$basic_string@DU?$char_traits@D@std@@V?$allocator@D@2@@std@@@std@@@2@$0A@@std@@@std@@QAE?AViterator@12@V312@0@Z 1000cf60 f i base:SvrBase.obj
 0001:0000c030       ??0IMessage@sbase@@QAE@HHPBXHH@Z 1000d030 f   base:IMessage.obj
 0001:0000c0b0       ??0IMessage@sbase@@QAE@ABV01@@Z 1000d0b0 f   base:IMessage.obj
 0001:0000c0e0       ?Init@CMsg@sbase@@IAEXXZ   1000d0e0 f   base:Msg.obj
 0001:0000c110       ?Create@CMsg@sbase@@UAE_NPBXG@Z 1000d110 f   base:Msg.obj
 0001:0000c180       ??0CIniFile@sbase@@QAE@PBD0@Z 1000d180 f   base:IniFile.obj
 0001:0000c230       ?GetString@CIniFile@sbase@@QAE_NPBDPADH@Z 1000d230 f   base:IniFile.obj
 0001:0000c4a0       ?GetInt@CIniFile@sbase@@QAEHPBD@Z 1000d4a0 f   base:IniFile.obj
 0001:0000c510       ?RunThread@CThread@sbase@@CGKPAX@Z 1000d510 f   base:Thread.obj
 0001:0000c5d0       ??1CThread@sbase@@UAE@XZ   1000d5d0 f   base:Thread.obj
 0001:0000c690       ?Init@CThread@sbase@@QAE_N_NK@Z 1000d690 f   base:Thread.obj
 0001:0000c740       ?CreateNew@CThread@sbase@@SAPAV12@AAVIThreadEvent@2@_NK@Z 1000d740 f   base:Thread.obj
 0001:0000c7a0       ??_GCThread@sbase@@UAEPAXI@Z 1000d7a0 f i base:Thread.obj
 0001:0000c7a0       ??_ECThread@sbase@@UAEPAXI@Z 1000d7a0 f i base:Thread.obj
 0001:0000c7be       ??_U@YAPAXI@Z              1000d7be f   libcpmt:newaop.obj
 0001:0000c7c3       ?_Xlen@_String_base@std@@SAXXZ 1000d7c3 f   libcpmt:string.obj
 0001:0000c802       ?_Xran@_String_base@std@@SAXXZ 1000d802 f   libcpmt:string.obj
 0001:0000c841       ??0_Mutex@std@@QAE@XZ      1000d841 f   libcpmt:xmutex.obj
 0001:0000c859       ??1_Mutex@std@@QAE@XZ      1000d859 f   libcpmt:xmutex.obj
 0001:0000c86e       ?_Lock@_Mutex@std@@QAEXXZ  1000d86e f   libcpmt:xmutex.obj
 0001:0000c877       ?_Unlock@_Mutex@std@@QAEXXZ 1000d877 f   libcpmt:xmutex.obj
 0001:0000c880       ?uncaught_exception@std@@YA_NXZ 1000d880 f   libcpmt:uncaught.obj
 0001:0000c885       ?_Getctype@_Locinfo@std@@QBE?AU_Ctypevec@@XZ 1000d885 f i libcpmt:cout.obj
 0001:0000c8a8       ??0locale@std@@QAE@XZ      1000d8a8 f i libcpmt:cout.obj
 0001:0000c8c2       ?_Init@?$ctype@D@std@@IAEXABV_Locinfo@2@@Z 1000d8c2 f i libcpmt:cout.obj
 0001:0000c8e7       ?_Tidy@?$ctype@D@std@@IAEXXZ 1000d8e7 f i libcpmt:cout.obj
 0001:0000c904       ??1?$basic_ios@DU?$char_traits@D@std@@@std@@UAE@XZ 1000d904 f i libcpmt:cout.obj
 0001:0000c912       ??_G?$basic_ios@DU?$char_traits@D@std@@@std@@UAEPAXI@Z 1000d912 f i libcpmt:cout.obj
 0001:0000c912       ??_E?$basic_ios@DU?$char_traits@D@std@@@std@@UAEPAXI@Z 1000d912 f i libcpmt:cout.obj
 0001:0000c912       ??_Gios_base@std@@UAEPAXI@Z 1000d912 f i libcpmt:cout.obj
 0001:0000c912       ??_Eios_base@std@@UAEPAXI@Z 1000d912 f i libcpmt:cout.obj
 0001:0000c936       ?_Init@?$basic_streambuf@DU?$char_traits@D@std@@@std@@IAEXPAPAD0PAH001@Z 1000d936 f i libcpmt:cout.obj
 0001:0000c961       ??D?$_String_const_iterator@DU?$char_traits@D@std@@V?$allocator@D@2@@std@@QBEABDXZ 1000d961 f i libcpmt:cout.obj
 0001:0000c998       ??_D?$basic_ostream@DU?$char_traits@D@std@@@std@@QAEXXZ 1000d998 f i libcpmt:cout.obj
 0001:0000c9b7       ??0_Init_cout@std@@QAE@XZ  1000d9b7 f i libcpmt:cout.obj
 0001:0000ca0c       ??1?$basic_streambuf@DU?$char_traits@D@std@@@std@@UAE@XZ 1000da0c f i libcpmt:cout.obj
 0001:0000ca35       ?overflow@?$basic_streambuf@DU?$char_traits@D@std@@@std@@MAEHH@Z 1000da35 f i libcpmt:cout.obj
 0001:0000ca35       ?pbackfail@?$basic_streambuf@DU?$char_traits@D@std@@@std@@MAEHH@Z 1000da35 f i libcpmt:cout.obj
 0001:0000ca3b       ___init_collate            1000da3b f i LIBCMT:initcoll.obj
 0001:0000ca3b       __matherr                  1000da3b f i LIBCMT:matherr.obj
 0001:0000ca3b       ?sync@?$basic_streambuf@DU?$char_traits@D@std@@@std@@MAEHXZ 1000da3b f i libcpmt:cout.obj
 0001:0000ca3b       ___init_dummy              1000da3b f i LIBCMT:setlocal.obj
 0001:0000ca3b       ?showmanyc@?$basic_streambuf@DU?$char_traits@D@std@@@std@@MAEHXZ 1000da3b f i libcpmt:cout.obj
 0001:0000ca3e       ?underflow@?$basic_streambuf@DU?$char_traits@D@std@@@std@@MAEHXZ 1000da3e f i libcpmt:cout.obj
 0001:0000ca42       ?xsgetn@?$basic_streambuf@DU?$char_traits@D@std@@@std@@MAEHPADH@Z 1000da42 f i libcpmt:cout.obj
 0001:0000ca54       ?setbuf@?$basic_streambuf@DU?$char_traits@D@std@@@std@@MAEPAV12@PADH@Z 1000da54 f i libcpmt:cout.obj
 0001:0000ca59       ?imbue@?$basic_streambuf@DU?$char_traits@D@std@@@std@@MAEXABVlocale@2@@Z 1000da59 f i libcpmt:cout.obj
 0001:0000ca5c       ?uflow@?$basic_streambuf@DU?$char_traits@D@std@@@std@@MAEHXZ 1000da5c f i libcpmt:cout.obj
 0001:0000ca81       ?seekoff@?$basic_streambuf@DU?$char_traits@D@std@@@std@@MAE?AV?$fpos@H@2@JHH@Z 1000da81 f i libcpmt:cout.obj
 0001:0000ca9b       ?seekpos@?$basic_streambuf@DU?$char_traits@D@std@@@std@@MAE?AV?$fpos@H@2@V32@H@Z 1000da9b f i libcpmt:cout.obj
 0001:0000cab5       ??_E?$basic_ostream@DU?$char_traits@D@std@@@std@@UAEPAXI@Z 1000dab5 f i libcpmt:cout.obj
 0001:0000cab5       ??_G?$basic_ostream@DU?$char_traits@D@std@@@std@@UAEPAXI@Z 1000dab5 f i libcpmt:cout.obj
 0001:0000cad4       ??_G?$basic_streambuf@DU?$char_traits@D@std@@@std@@UAEPAXI@Z 1000dad4 f i libcpmt:cout.obj
 0001:0000cad4       ??_E?$basic_streambuf@DU?$char_traits@D@std@@@std@@UAEPAXI@Z 1000dad4 f i libcpmt:cout.obj
 0001:0000caf0       ?_Init@?$basic_streambuf@DU?$char_traits@D@std@@@std@@IAEXXZ 1000daf0 f i libcpmt:cout.obj
 0001:0000cb32       ??0?$_String_const_iterator@DU?$char_traits@D@std@@V?$allocator@D@2@@std@@QAE@PBDPBU_Container_base@1@@Z 1000db32 f i libcpmt:cout.obj
 0001:0000cb81       ?_Xsgetn_s@?$basic_streambuf@DU?$char_traits@D@std@@@std@@MAEHPADIH@Z 1000db81 f i libcpmt:cout.obj
 0001:0000cbfc       ?xsputn@?$basic_streambuf@DU?$char_traits@D@std@@@std@@MAEHPBDH@Z 1000dbfc f i libcpmt:cout.obj
 0001:0000cc79       ??0?$basic_streambuf@DU?$char_traits@D@std@@@std@@IAE@XZ 1000dc79 f i libcpmt:cout.obj
 0001:0000ccc5       ?_Init@?$basic_filebuf@DU?$char_traits@D@std@@@std@@IAEXPAU_iobuf@@W4_Initfl@12@@Z 1000dcc5 f i libcpmt:cout.obj
 0001:0000cd0c       ??0?$basic_filebuf@DU?$char_traits@D@std@@@std@@QAE@PAU_iobuf@@@Z 1000dd0c f i libcpmt:cout.obj
 0001:0000cd2d       ??1codecvt_base@std@@UAE@XZ 1000dd2d f i libcpmt:cout.obj
 0001:0000cd2d       ??1ctype_base@std@@UAE@XZ  1000dd2d f i libcpmt:cout.obj
 0001:0000cd34       ?do_always_noconv@codecvt_base@std@@MBE_NXZ 1000dd34 f i libcpmt:cout.obj
 0001:0000cd37       ?do_max_length@codecvt_base@std@@MBEHXZ 1000dd37 f i libcpmt:cout.obj
 0001:0000cd37       ?do_encoding@codecvt_base@std@@MBEHXZ 1000dd37 f i libcpmt:cout.obj
 0001:0000cd3b       ??$_Fgetc@D@std@@YA_NAADPAU_iobuf@@@Z 1000dd3b f i libcpmt:cout.obj
 0001:0000cd56       ??$_Fputc@D@std@@YA_NDPAU_iobuf@@@Z 1000dd56 f i libcpmt:cout.obj
 0001:0000cd72       ??$_Ungetc@D@std@@YA_NABDPAU_iobuf@@@Z 1000dd72 f i libcpmt:cout.obj
 0001:0000cd90       ?sync@?$basic_filebuf@DU?$char_traits@D@std@@@std@@MAEHXZ 1000dd90 f i libcpmt:cout.obj
 0001:0000cdbb       ?pbackfail@?$basic_filebuf@DU?$char_traits@D@std@@@std@@MAEHH@Z 1000ddbb f i libcpmt:cout.obj
 0001:0000ce25       ?underflow@?$basic_filebuf@DU?$char_traits@D@std@@@std@@MAEHXZ 1000de25 f i libcpmt:cout.obj
 0001:0000ce61       ?_Initcvt@?$basic_filebuf@DU?$char_traits@D@std@@@std@@IAEXPAV?$codecvt@DDH@2@@Z 1000de61 f i libcpmt:cout.obj
 0001:0000ce89       ?setbuf@?$basic_filebuf@DU?$char_traits@D@std@@@std@@MAEPAV?$basic_streambuf@DU?$char_traits@D@std@@@2@PADH@Z 1000de89 f i libcpmt:cout.obj
 0001:0000ced0       ?begin@?$basic_string@DU?$char_traits@D@std@@V?$allocator@D@2@@std@@QAE?AV?$_String_iterator@DU?$char_traits@D@std@@V?$allocator@D@2@@2@XZ 1000ded0 f i libcpmt:cout.obj
 0001:0000cef0       ?assign@?$basic_string@DU?$char_traits@D@std@@V?$allocator@D@2@@std@@QAEAAV12@ID@Z 1000def0 f i libcpmt:cout.obj
 0001:0000cf2d       ?uflow@?$basic_filebuf@DU?$char_traits@D@std@@@std@@MAEHXZ 1000df2d f i libcpmt:cout.obj
 0001:0000d0ce       ??0?$basic_string@DU?$char_traits@D@std@@V?$allocator@D@2@@std@@QAE@ID@Z 1000e0ce f i libcpmt:cout.obj
 0001:0000d0f4       ?_Endwrite@?$basic_filebuf@DU?$char_traits@D@std@@@std@@IAE_NXZ 1000e0f4 f i libcpmt:cout.obj
 0001:0000d208       ?overflow@?$basic_filebuf@DU?$char_traits@D@std@@@std@@MAEHH@Z 1000e208 f i libcpmt:cout.obj
 0001:0000d3b7       ?seekoff@?$basic_filebuf@DU?$char_traits@D@std@@@std@@MAE?AV?$fpos@H@2@JHH@Z 1000e3b7 f i libcpmt:cout.obj
 0001:0000d46f       ?seekpos@?$basic_filebuf@DU?$char_traits@D@std@@@std@@MAE?AV?$fpos@H@2@V32@H@Z 1000e46f f i libcpmt:cout.obj
 0001:0000d531       ?close@?$basic_filebuf@DU?$char_traits@D@std@@@std@@QAEPAV12@XZ 1000e531 f i libcpmt:cout.obj
 0001:0000d57a       ??0?$ctype@D@std@@QAE@PBF_NI@Z 1000e57a f i libcpmt:cout.obj
 0001:0000d5ec       ?do_tolower@?$ctype@D@std@@MBEDD@Z 1000e5ec f i libcpmt:cout.obj
 0001:0000d600       ?do_tolower@?$ctype@D@std@@MBEPBDPADPBD@Z 1000e600 f i libcpmt:cout.obj
 0001:0000d62b       ?do_toupper@?$ctype@D@std@@MBEDD@Z 1000e62b f i libcpmt:cout.obj
 0001:0000d63f       ?do_toupper@?$ctype@D@std@@MBEPBDPADPBD@Z 1000e63f f i libcpmt:cout.obj
 0001:0000d66a       ?do_widen@?$ctype@D@std@@MBEDD@Z 1000e66a f i libcpmt:cout.obj
 0001:0000d671       ?do_widen@?$ctype@D@std@@MBEPBDPBD0PAD@Z 1000e671 f i libcpmt:cout.obj
 0001:0000d68d       ?_Do_widen_s@?$ctype@D@std@@MBEPBDPBD0PADI@Z 1000e68d f i libcpmt:cout.obj
 0001:0000d6bb       ?do_narrow@?$ctype@D@std@@MBEDDD@Z 1000e6bb f i libcpmt:cout.obj
 0001:0000d6c2       ?do_narrow@?$ctype@D@std@@MBEPBDPBD0DPAD@Z 1000e6c2 f i libcpmt:cout.obj
 0001:0000d6e1       ?_Do_narrow_s@?$ctype@D@std@@MBEPBDPBD0DPADI@Z 1000e6e1 f i libcpmt:cout.obj
 0001:0000d70f       ??1?$ctype@D@std@@MAE@XZ   1000e70f f i libcpmt:cout.obj
 0001:0000d725       ??_G?$ctype@D@std@@MAEPAXI@Z 1000e725 f i libcpmt:cout.obj
 0001:0000d725       ??_E?$ctype@D@std@@MAEPAXI@Z 1000e725 f i libcpmt:cout.obj
 0001:0000d741       ?_Getcat@?$ctype@D@std@@SAIPAPBVfacet@locale@2@@Z 1000e741 f i libcpmt:cout.obj
 0001:0000d785       ?_Init@ios_base@std@@IAEXXZ 1000e785 f i libcpmt:cout.obj
 0001:0000d7cc       ??1?$basic_filebuf@DU?$char_traits@D@std@@@std@@UAE@XZ 1000e7cc f i libcpmt:cout.obj
 0001:0000d803       ??_G?$basic_filebuf@DU?$char_traits@D@std@@@std@@UAEPAXI@Z 1000e803 f i libcpmt:cout.obj
 0001:0000d803       ??_E?$basic_filebuf@DU?$char_traits@D@std@@@std@@UAEPAXI@Z 1000e803 f i libcpmt:cout.obj
 0001:0000d81f       ??$use_facet@V?$ctype@D@std@@@std@@YAABV?$ctype@D@0@ABVlocale@0@@Z 1000e81f f i libcpmt:cout.obj
 0001:0000d8b8       ??0?$codecvt@DDH@std@@QAE@I@Z 1000e8b8 f i libcpmt:cout.obj
 0001:0000d901       ?do_out@?$codecvt@DDH@std@@MBEHAAHPBD1AAPBDPAD3AAPAD@Z 1000e901 f i libcpmt:cout.obj
 0001:0000d901       ?do_in@?$codecvt@DDH@std@@MBEHAAHPBD1AAPBDPAD3AAPAD@Z 1000e901 f i libcpmt:cout.obj
 0001:0000d91b       ?do_unshift@?$codecvt@DDH@std@@MBEHAAHPAD1AAPAD@Z 1000e91b f i libcpmt:cout.obj
 0001:0000d92b       ?do_length@?$codecvt@DDH@std@@MBEHABHPBD1I@Z 1000e92b f i libcpmt:cout.obj
 0001:0000d940       ??_E?$codecvt@DDH@std@@MAEPAXI@Z 1000e940 f i libcpmt:cout.obj
 0001:0000d940       ??_G?$codecvt@DDH@std@@MAEPAXI@Z 1000e940 f i libcpmt:cout.obj
 0001:0000d95d       ?widen@?$basic_ios@DU?$char_traits@D@std@@@std@@QBEDD@Z 1000e95d f i libcpmt:cout.obj
 0001:0000d99d       ?_Getcat@?$codecvt@DDH@std@@SAIPAPBVfacet@locale@2@@Z 1000e99d f i libcpmt:cout.obj
 0001:0000d9e0       ?init@?$basic_ios@DU?$char_traits@D@std@@@std@@IAEXPAV?$basic_streambuf@DU?$char_traits@D@std@@@2@_N@Z 1000e9e0 f i libcpmt:cout.obj
 0001:0000da2c       ??$use_facet@V?$codecvt@DDH@std@@@std@@YAABV?$codecvt@DDH@0@ABVlocale@0@@Z 1000ea2c f i libcpmt:cout.obj
 0001:0000dac5       ??0?$basic_ostream@DU?$char_traits@D@std@@@std@@QAE@PAV?$basic_streambuf@DU?$char_traits@D@std@@@1@_N@Z 1000eac5 f i libcpmt:cout.obj
 0001:0000db1f       ?imbue@?$basic_filebuf@DU?$char_traits@D@std@@@std@@MAEXABVlocale@2@@Z 1000eb1f f i libcpmt:cout.obj
 0001:0000db38       __Getcvt                   1000eb38 f   libcpmt:xwctomb.obj
 0001:0000db4c       ??0_Init_locks@std@@QAE@XZ 1000eb4c f   libcpmt:xlock.obj
 0001:0000db7b       ??1_Init_locks@std@@QAE@XZ 1000eb7b f   libcpmt:xlock.obj
 0001:0000dba4       ??0_Lockit@std@@QAE@H@Z    1000eba4 f   libcpmt:xlock.obj
 0001:0000dbc5       ??1_Lockit@std@@QAE@XZ     1000ebc5 f   libcpmt:xlock.obj
 0001:0000dbd7       ??1_Fac_node@std@@QAE@XZ   1000ebd7 f i libcpmt:locale0.obj
 0001:0000dbec       __Deletegloballocale       1000ebec f   libcpmt:locale0.obj
 0001:0000dc32       ?_Getgloballocale@locale@std@@CAPAV_Locimp@12@XZ 1000ec32 f   libcpmt:locale0.obj
 0001:0000dc38       ?_Setgloballocale@locale@std@@CAXPAX@Z 1000ec38 f   libcpmt:locale0.obj
 0001:0000dc5d       ?_Locimp_dtor@_Locimp@locale@std@@CAXPAV123@@Z 1000ec5d f   libcpmt:locale0.obj
 0001:0000dcbd       __Fac_tidy                 1000ecbd f   libcpmt:locale0.obj
 0001:0000dd00       ?facet_Register@facet@locale@std@@CAXPAV123@@Z 1000ed00 f   libcpmt:locale0.obj
 0001:0000dd39       ?_Locinfo_dtor@_Locinfo@std@@SAXPAV12@@Z 1000ed39 f   libcpmt:locale0.obj
 0001:0000dd5c       ??0_Locimp@locale@std@@AAE@_N@Z 1000ed5c f i libcpmt:locale0.obj
 0001:0000dda5       ??1_Locimp@locale@std@@MAE@XZ 1000eda5 f i libcpmt:locale0.obj
 0001:0000dde2       ??_G_Locimp@locale@std@@MAEPAXI@Z 1000ede2 f i libcpmt:locale0.obj
 0001:0000dde2       ??_E_Locimp@locale@std@@MAEPAXI@Z 1000ede2 f i libcpmt:locale0.obj
 0001:0000ddfe       ?_Init@locale@std@@CAPAV_Locimp@12@XZ 1000edfe f   libcpmt:locale0.obj
 0001:0000de98       ?_Locinfo_ctor@_Locinfo@std@@SAXPAV12@PBD@Z 1000ee98 f   libcpmt:locale0.obj
 0001:0000dee2       __Mtxinit                  1000eee2 f   libcpmt:xmtx.obj
 0001:0000deed       __Mtxdst                   1000eeed f   libcpmt:xmtx.obj
 0001:0000def8       __Mtxlock                  1000eef8 f   libcpmt:xmtx.obj
 0001:0000df03       __Mtxunlock                1000ef03 f   libcpmt:xmtx.obj
 0001:0000df0e       __Tolower                  1000ef0e f   libcpmt:_tolower.obj
 0001:0000e01d       __Getctype                 1000f01d f   libcpmt:_tolower.obj
 0001:0000e078       ?_Callfns@ios_base@std@@AAEXW4event@12@@Z 1000f078 f i libcpmt:ios.obj
 0001:0000e09a       ?_Tidy@ios_base@std@@AAAXXZ 1000f09a f i libcpmt:ios.obj
 0001:0000e0e0       ?_Addstd@ios_base@std@@SAXPAV12@@Z 1000f0e0 f   libcpmt:ios.obj
 0001:0000e130       ?_Ios_base_dtor@ios_base@std@@CAXPAV12@@Z 1000f130 f   libcpmt:ios.obj
 0001:0000e16e       ?_Atexit@@YAXP6AXXZ@Z      1000f16e f   libcpmt:iosptrs.obj
 0001:0000e18e       ??1_Init_atexit@@QAE@XZ    1000f18e f i libcpmt:iosptrs.obj
 0001:0000e1b3       __Toupper                  1000f1b3 f   libcpmt:_toupper.obj
 0001:0000e318       ??_V@YAXPAX@Z              1000f318 f   LIBCMT:delete2.obj
 0001:0000e320       _memcpy                    1000f320 f   LIBCMT:memcpy.obj
 0001:0000e685       ??0exception@std@@QAE@XZ   1000f685 f   LIBCMT:stdexcpt.obj
 0001:0000e696       ??0exception@std@@QAE@ABQBD@Z 1000f696 f   LIBCMT:stdexcpt.obj
 0001:0000e6e4       ??0exception@std@@QAE@ABQBDH@Z 1000f6e4 f   LIBCMT:stdexcpt.obj
 0001:0000e6fc       ??0exception@std@@QAE@ABV01@@Z 1000f6fc f   LIBCMT:stdexcpt.obj
 0001:0000e754       ??1exception@std@@UAE@XZ   1000f754 f   LIBCMT:stdexcpt.obj
 0001:0000e76a       ?what@exception@std@@UBEPBDXZ 1000f76a f   LIBCMT:stdexcpt.obj
 0001:0000e777       ??0bad_cast@std@@QAE@PBD@Z 1000f777 f   LIBCMT:stdexcpt.obj
 0001:0000e790       ??0bad_cast@std@@QAE@ABV01@@Z 1000f790 f   LIBCMT:stdexcpt.obj
 0001:0000e7a8       ??1bad_cast@std@@UAE@XZ    1000f7a8 f   LIBCMT:stdexcpt.obj
 0001:0000e7b3       ??_Eexception@std@@UAEPAXI@Z 1000f7b3 f i LIBCMT:stdexcpt.obj
 0001:0000e7b3       ??_Gexception@std@@UAEPAXI@Z 1000f7b3 f i LIBCMT:stdexcpt.obj
 0001:0000e7cf       ??_Ebad_cast@std@@UAEPAXI@Z 1000f7cf f i LIBCMT:stdexcpt.obj
 0001:0000e7cf       ??_Gbad_cast@std@@UAEPAXI@Z 1000f7cf f i LIBCMT:stdexcpt.obj
 0001:0000e7f1       ??1type_info@@UAE@XZ       1000f7f1 f   LIBCMT:typinfo.obj
 0001:0000e7ff       ??_Etype_info@@UAEPAXI@Z   1000f7ff f i LIBCMT:typinfo.obj
 0001:0000e7ff       ??_Gtype_info@@UAEPAXI@Z   1000f7ff f i LIBCMT:typinfo.obj
 0001:0000e81b       ??8type_info@@QBE_NABV0@@Z 1000f81b f   LIBCMT:typinfo.obj
 0001:0000e836       ??3@YAXPAX@Z               1000f836 f   LIBCMT:delete.obj
 0001:0000e83b       _memcpy_s                  1000f83b f   LIBCMT:memcpy_s.obj
 0001:0000e8b6       _memmove_s                 1000f8b6 f   LIBCMT:memmove_s.obj
 0001:0000e911       _clock                     1000f911 f   LIBCMT:clock.obj
 0001:0000e954       ___inittime                1000f954 f   LIBCMT:clock.obj
 0001:0000e98b       __purecall                 1000f98b f   LIBCMT:purevirt.obj
 0001:0000e9b5       ?_JumpToContinuation@@YGXPAXPAUEHRegistrationNode@@@Z 1000f9b5 f   LIBCMT:trnsctrl.obj
 0001:0000e9e5       ?_CallMemberFunction1@@YGXPAX00@Z 1000f9e5 f   LIBCMT:trnsctrl.obj
 0001:0000e9e5       ?_CallMemberFunction2@@YGXPAX00H@Z 1000f9e5 f   LIBCMT:trnsctrl.obj
 0001:0000e9e5       ?_CallMemberFunction0@@YGXPAX0@Z 1000f9e5 f   LIBCMT:trnsctrl.obj
 0001:0000e9ec       ?_UnwindNestedFrames@@YGXPAUEHRegistrationNode@@PAUEHExceptionRecord@@@Z 1000f9ec f   LIBCMT:trnsctrl.obj
 0001:0000ea3e       ___CxxFrameHandler3        1000fa3e f   LIBCMT:trnsctrl.obj
 0001:0000eaa4       ?_CallSETranslator@@YAHPAUEHExceptionRecord@@PAUEHRegistrationNode@@PAX2PBU_s_FuncInfo@@H1@Z 1000faa4 f   LIBCMT:trnsctrl.obj
 0001:0000ec16       ?_GetRangeOfTrysToCheck@@YAPBU_s_TryBlockMapEntry@@PBU_s_FuncInfo@@HHPAI1@Z 1000fc16 f   LIBCMT:trnsctrl.obj
 0001:0000ec89       __CreateFrameInfo          1000fc89 f   LIBCMT:trnsctrl.obj
 0001:0000ecb1       __IsExceptionObjectToBeDestroyed 1000fcb1 f   LIBCMT:trnsctrl.obj
 0001:0000ecd2       __FindAndUnlinkFrame       1000fcd2 f   LIBCMT:trnsctrl.obj
 0001:0000ed1e       ?_CallCatchBlock2@@YAPAXPAUEHRegistrationNode@@PBU_s_FuncInfo@@PAXHK@Z 1000fd1e f   LIBCMT:trnsctrl.obj
 0001:0000ed7c       @__security_check_cookie@4 1000fd7c f   LIBCMT:secchk.obj
 0001:0000ed8b       ??0bad_alloc@std@@QAE@XZ   1000fd8b f i LIBCMT:new.obj
 0001:0000eda4       ??2@YAPAXI@Z               1000fda4 f   LIBCMT:new.obj
 0001:0000ee0e       __CxxThrowException@8      1000fe0e f   LIBCMT:throw.obj
 0001:0000ee58       __initp_misc_invarg        1000fe58 f   LIBCMT:invarg.obj
 0001:0000ee62       __invoke_watson            1000fe62 f   LIBCMT:invarg.obj
 0001:0000ef5e       __invalid_parameter        1000ff5e f   LIBCMT:invarg.obj
 0001:0000ef82       __invalid_parameter_noinfo 1000ff82 f   LIBCMT:invarg.obj
 0001:0000ef92       __vsnprintf_helper         1000ff92 f   LIBCMT:vsnprnc.obj
 0001:0000f05c       __vsprintf_s_l             1001005c f   LIBCMT:vsnprnc.obj
 0001:0000f0e2       _vsprintf_s                100100e2 f   LIBCMT:vsnprnc.obj
 0001:0000f100       _memset                    10010100 f   LIBCMT:memset.obj
 0001:0000f17a       _atol                      1001017a f   LIBCMT:atox.obj
 0001:0000f18b       _atoi                      1001018b f   LIBCMT:atox.obj
 0001:0000f190       __time64                   10010190 f   LIBCMT:time64.obj
 0001:0000f279       ___onexitinit              10010279 f   LIBCMT:onexit.obj
 0001:0000f2a8       __onexit                   100102a8 f   LIBCMT:onexit.obj
 0001:0000f2e4       _atexit                    100102e4 f   LIBCMT:onexit.obj
 0001:0000f2f6       _localeconv                100102f6 f   LIBCMT:lconv.obj
 0001:0000f320       _memchr                    10010320 f   LIBCMT:memchr.obj
 0001:0000f3d0       _strcspn                   100103d0 f   LIBCMT:strcspn.obj
 0001:0000f416       _sprintf_s                 10010416 f   LIBCMT:sprintf.obj
 0001:0000f432       __cfltcvt_init             10010432 f   LIBCMT:fpinit.obj
 0001:0000f492       __fpmath                   10010492 f   LIBCMT:fpinit.obj
 0001:0000f4b0       _printf                    100104b0 f   LIBCMT:printf.obj
 0001:0000f55f       __get_printf_count_output  1001055f f   LIBCMT:printf.obj
 0001:0000f580       __alloca_probe             10010580     LIBCMT:chkstk.obj
 0001:0000f580       __chkstk                   10010580 f   LIBCMT:chkstk.obj
 0001:0000f5ab       __CRT_INIT@12              100105ab f   LIBCMT:dllcrt0.obj
 0001:0000f87a       __DllMainCRTStartup@12     1001087a f   LIBCMT:dllcrt0.obj
 0001:0000f89b       __ctime64                  1001089b f   LIBCMT:ctime64.obj
 0001:0000f8fc       __localtime64_s            100108fc f   LIBCMT:loctim64.obj
 0001:0000fba4       __localtime64              10010ba4 f   LIBCMT:loctim64.obj
 0001:0000fbd0       __CIsqrt                   10010bd0 f   LIBCMT:sqrt.obj
 0001:0000fbe4       _sqrt                      10010be4     LIBCMT:sqrt.obj
 0001:0000fc90       _sin                       10010c90 f   LIBCMT:sin.obj
 0001:0000fcd0       __CIsin                    10010cd0 f   LIBCMT:sin.obj
 0001:0000fd0b       __CIsin_default            10010d0b f   LIBCMT:sin.obj
 0001:0000fd1f       __sin_default              10010d1f     LIBCMT:sin.obj
 0001:0000fdc0       _strncpy                   10010dc0 f   LIBCMT:strncpy.obj
 0001:0000fee4       _rename                    10010ee4 f   LIBCMT:rename.obj
 0001:0000ff12       __fclose_nolock            10010f12 f   LIBCMT:fclose.obj
 0001:0000ff85       _fclose                    10010f85 f   LIBCMT:fclose.obj
 0001:00010001       _fprintf                   10011001 f   LIBCMT:fprintf.obj
 0001:00010150       __fsopen                   10011150 f   LIBCMT:fopen.obj
 0001:00010214       _fopen                     10011214 f   LIBCMT:fopen.obj
 0001:00010227       _fgetc                     10011227 f   LIBCMT:fgetc.obj
 0001:00010360       _strstr                    10011360 f   LIBCMT:strstr.obj
 0001:00010400       _strchr                    10011400 f   LIBCMT:strchr.obj
 0001:00010406       ___from_strstr_to_strchr   10011406     LIBCMT:strchr.obj
 0001:000104be       _fgets                     100114be f   LIBCMT:fgets.obj
 0001:00010645       _feof                      10011645 f   LIBCMT:feoferr.obj
 0001:00010680       _strlen                    10011680 f   LIBCMT:strlen.obj
 0001:0001070b       __EH_prolog3               1001170b f   LIBCMT:ehprolg3.obj
 0001:0001073e       __EH_prolog3_catch         1001173e f   LIBCMT:ehprolg3.obj
 0001:00010774       __EH_prolog3_GS            10011774 f   LIBCMT:ehprolg3.obj
 0001:000107aa       __EH_epilog3               100117aa f   LIBCMT:ehprolg3.obj
 0001:000107be       __EH_epilog3_GS            100117be f   LIBCMT:ehprolg3.obj
 0001:000107cd       ??1bad_exception@std@@UAE@XZ 100117cd f i LIBCMT:frame.obj
 0001:000107d8       ??_Gbad_exception@std@@UAEPAXI@Z 100117d8 f i LIBCMT:frame.obj
 0001:000107d8       ??_Ebad_exception@std@@UAEPAXI@Z 100117d8 f i LIBCMT:frame.obj
 0001:000107fa       ___TypeMatch               100117fa f   LIBCMT:frame.obj
 0001:00010856       ___FrameUnwindFilter       10011856 f   LIBCMT:frame.obj
 0001:0001089a       ___FrameUnwindToState      1001189a f   LIBCMT:frame.obj
 0001:000109c0       ___DestructExceptionObject 100119c0 f   LIBCMT:frame.obj
 0001:00010a14       ___AdjustPointer           10011a14 f   LIBCMT:frame.obj
 0001:00010a39       ?__uncaught_exception@@YA_NXZ 10011a39 f   LIBCMT:frame.obj
 0001:00010caa       ___BuildCatchObjectHelper  10011caa f   LIBCMT:frame.obj
 0001:00010e29       ___BuildCatchObject        10011e29 f   LIBCMT:frame.obj
 0001:0001136e       ??0bad_exception@std@@QAE@ABV01@@Z 1001236e f i LIBCMT:frame.obj
 0001:00011386       ___InternalCxxFrameHandler 10012386 f   LIBCMT:frame.obj
 0001:0001146a       _free                      1001246a f   LIBCMT:free.obj
 0001:000114f8       _fputc                     100124f8 f   LIBCMT:fputc.obj
 0001:00011637       __ungetc_nolock            10012637 f   LIBCMT:ungetc.obj
 0001:00011755       _ungetc                    10012755 f   LIBCMT:ungetc.obj
 0001:000117c7       __flush                    100127c7 f   LIBCMT:fflush.obj
 0001:00011829       __fflush_nolock            10012829 f   LIBCMT:fflush.obj
 0001:00011945       _fflush                    10012945 f   LIBCMT:fflush.obj
 0001:00011998       __flushall                 10012998 f   LIBCMT:fflush.obj
 0001:000119a1       _setvbuf                   100129a1 f   LIBCMT:setvbuf.obj
 0001:00011a9f       __fwrite_nolock            10012a9f f   LIBCMT:fwrite.obj
 0001:00011bb9       _fwrite                    10012bb9 f   LIBCMT:fwrite.obj
 0001:00011c46       _fgetpos                   10012c46 f   LIBCMT:fgetpos.obj
 0001:00011cb1       __fseek_nolock             10012cb1 f   LIBCMT:fseek.obj
 0001:00011d38       _fseek                     10012d38 f   LIBCMT:fseek.obj
 0001:00011dbd       _fsetpos                   10012dbd f   LIBCMT:fsetpos.obj
 0001:00011dff       ___iob_func                10012dff f   LIBCMT:_file.obj
 0001:00011e05       ___initstdio               10012e05 f   LIBCMT:_file.obj
 0001:00011eb6       ___endstdio                10012eb6 f   LIBCMT:_file.obj
 0001:00011ed6       __lock_file                10012ed6 f   LIBCMT:_file.obj
 0001:00011f05       __lock_file2               10012f05 f   LIBCMT:_file.obj
 0001:00011f28       __unlock_file              10012f28 f   LIBCMT:_file.obj
 0001:00011f57       __unlock_file2             10012f57 f   LIBCMT:_file.obj
 0001:00011f7a       __get_errno_from_oserr     10012f7a f   LIBCMT:dosmap.obj
 0001:00011fb5       __errno                    10012fb5 f   LIBCMT:dosmap.obj
 0001:00011fc8       ___doserrno                10012fc8 f   LIBCMT:dosmap.obj
 0001:00011fdb       __dosmaperr                10012fdb f   LIBCMT:dosmap.obj
 0001:00011ff9       ___init_ctype              10012ff9 f   LIBCMT:initctyp.obj
 0001:0001238e       ____lc_codepage_func       1001338e f   LIBCMT:initctyp.obj
 0001:000123b4       ____lc_handle_func         100133b4 f   LIBCMT:initctyp.obj
 0001:000123da       ___freetlocinfo            100133da f   LIBCMT:setlocal.obj
 0001:0001251a       ___addlocaleref            1001351a f   LIBCMT:setlocal.obj
 0001:000125a0       ___removelocaleref         100135a0 f   LIBCMT:setlocal.obj
 0001:0001268e       ___updatetlocinfo          1001368e f   LIBCMT:setlocal.obj
 0001:00012757       __free_locale              10013757 f   LIBCMT:setlocal.obj
 0001:000127ed       __strcats                  100137ed f   LIBCMT:setlocal.obj
 0001:0001282b       ___lc_strtolc              1001382b f   LIBCMT:setlocal.obj
 0001:00012954       ___lc_lctostr              10013954 f   LIBCMT:setlocal.obj
 0001:00012b30       __expandlocale             10013b30 f   LIBCMT:setlocal.obj
 0001:000131c8       _setlocale                 100141c8 f   LIBCMT:setlocal.obj
 0001:00013338       __freea                    10014338 f i LIBCMT:a_map.obj
 0001:00013353       ??0_LocaleUpdate@@QAE@PAUlocaleinfo_struct@@@Z 10014353 f i LIBCMT:a_map.obj
 0001:00013777       ___crtLCMapStringA         10014777 f   LIBCMT:a_map.obj
 0001:000137ba       ___pctype_func             100147ba f   LIBCMT:ctype.obj
 0001:000137e3       __isupper_l                100147e3 f i LIBCMT:_ctype.obj
 0001:00013832       _isupper                   10014832 f i LIBCMT:_ctype.obj
 0001:0001385b       __islower_l                1001485b f i LIBCMT:_ctype.obj
 0001:000138aa       _islower                   100148aa f i LIBCMT:_ctype.obj
 0001:000138d3       __isdigit_l                100148d3 f i LIBCMT:_ctype.obj
 0001:00013922       _isdigit                   10014922 f i LIBCMT:_ctype.obj
 0001:0001394b       __malloc_crt               1001494b f   LIBCMT:crtheap.obj
 0001:0001398b       __calloc_crt               1001498b f   LIBCMT:crtheap.obj
 0001:000139d3       __realloc_crt              100149d3 f   LIBCMT:crtheap.obj
 0001:00013a1e       __recalloc_crt             10014a1e f   LIBCMT:crtheap.obj
 0001:00013a6e       _abort                     10014a6e f   LIBCMT:abort.obj
 0001:00013b61       __set_abort_behavior       10014b61 f   LIBCMT:abort.obj
 0001:00013c5a       __itoa_s                   10014c5a f   LIBCMT:xtoas.obj
 0001:00013d09       __VEC_memcpy               10014d09 f   LIBCMT:p4_memcpy.obj
 0001:00013dec       __sse2_mathfcns_init       10014dec f   LIBCMT:mathfcns.obj
 0001:00013e00       _strcpy_s                  10014e00 f   LIBCMT:strcpy_s.obj
 0001:00013e65       _V6_HeapAlloc              10014e65 f   LIBCMT:malloc.obj
 0001:00013eb4       _malloc                    10014eb4 f   LIBCMT:malloc.obj
 0001:00013f77       ?_Type_info_dtor@type_info@@CAXPAV1@@Z 10014f77 f   LIBCMT:typname.obj
 0001:00013ff0       _strcmp                    10014ff0 f   LIBCMT:strcmp.obj
 0001:00014080       _memmove                   10015080 f   LIBCMT:memmove.obj
 0001:000143f0       __aulldiv                  100153f0 f   LIBCMT:ulldiv.obj
 0001:00014460       __allmul                   10015460 f   LIBCMT:llmul.obj
 0001:00014494       __NMSG_WRITE               10015494 f   LIBCMT:crt0msg.obj
 0001:00014634       __FF_MSGBANNER             10015634 f   LIBCMT:crt0msg.obj
 0001:0001466d       __encode_pointer           1001566d f   LIBCMT:tidtable.obj
 0001:000146d0       __encoded_null             100156d0 f   LIBCMT:tidtable.obj
 0001:000146d9       __decode_pointer           100156d9 f   LIBCMT:tidtable.obj
 0001:0001473c       ___crtTlsAlloc@4           1001573c f   LIBCMT:tidtable.obj
 0001:00014745       ___set_flsgetvalue         10015745 f   LIBCMT:tidtable.obj
 0001:0001476f       __mtterm                   1001576f f   LIBCMT:tidtable.obj
 0001:000147ac       __initptd                  100157ac f   LIBCMT:tidtable.obj
 0001:00014860       __getptd_noexit            10015860 f   LIBCMT:tidtable.obj
 0001:000148e3       __getptd                   100158e3 f   LIBCMT:tidtable.obj
 0001:000148fb       __freefls@4                100158fb f   LIBCMT:tidtable.obj
 0001:00014a1c       __freeptd                  10015a1c f   LIBCMT:tidtable.obj
 0001:00014a85       __mtinit                   10015a85 f   LIBCMT:tidtable.obj
 0001:00014c09       ___getlocaleinfo           10015c09 f   LIBCMT:inithelp.obj
 0001:00014d63       __initp_misc_purevirt      10015d63 f   LIBCMT:inithelp.obj
 0001:00014d6d       ?terminate@@YAXXZ          10015d6d f   LIBCMT:hooks.obj
 0001:00014da6       ?unexpected@@YAXXZ         10015da6 f   LIBCMT:hooks.obj
 0001:00014db9       ?_inconsistency@@YAXXZ     10015db9 f   LIBCMT:hooks.obj
 0001:00014df0       __initp_eh_hooks           10015df0 f   LIBCMT:hooks.obj
 0001:00014e10       __CallSettingFrame@12      10015e10 f   LIBCMT:lowhelpr.obj
 0001:00014e37       __NLG_Return               10015e37     LIBCMT:lowhelpr.obj
 0001:00014e5c       ___report_gsfailure        10015e5c f   LIBCMT:gs_report.obj
 0001:00014f60       __initp_heap_handler       10015f60 f   LIBCMT:handler.obj
 0001:00014f6a       __callnewh                 10015f6a f   LIBCMT:handler.obj
 0001:00014f8c       ?__CxxUnhandledExceptionFilter@@YGJPAU_EXCEPTION_POINTERS@@@Z 10015f8c f   LIBCMT:unhandld.obj
 0001:00014ff8       ?__CxxSetUnhandledExceptionFilter@@YAHXZ 10015ff8 f   LIBCMT:unhandld.obj
 0001:00015019       ?__CxxRestoreUnhandledExceptionFilter@@YAXXZ 10016019 f   LIBCMT:unhandld.obj
 0001:0001503d       __crt_debugger_hook        1001603d f   LIBCMT:dbghook.obj
 0001:00015045       __flsbuf                   10016045 f   LIBCMT:_flsbuf.obj
 0001:000151ef       __output_l                 100161ef f   LIBCMT:output.obj
 0001:00015bde       __output_s_l               10016bde f   LIBCMT:outputs.obj
 0001:000165e5       __VEC_memzero              100175e5 f   LIBCMT:p4_memset.obj
 0001:0001689f       _strtol                    1001789f f   LIBCMT:strtol.obj
 0001:000168c8       __msize                    100178c8 f   LIBCMT:msize.obj
 0001:0001696b       __amsg_exit                1001796b f   LIBCMT:crt0dat.obj
 0001:0001698f       ___crtCorExitProcess       1001798f f   LIBCMT:crt0dat.obj
 0001:000169b5       ___crtExitProcess          100179b5 f   LIBCMT:crt0dat.obj
 0001:000169ca       __lockexit                 100179ca f   LIBCMT:crt0dat.obj
 0001:000169d3       __unlockexit               100179d3 f   LIBCMT:crt0dat.obj
 0001:000169f4       __initterm_e               100179f4 f   LIBCMT:crt0dat.obj
 0001:00016a14       __get_osplatform           10017a14 f   LIBCMT:crt0dat.obj
 0001:00016a4b       __get_winmajor             10017a4b f   LIBCMT:crt0dat.obj
 0001:00016a87       __cinit                    10017a87 f   LIBCMT:crt0dat.obj
 0001:00016be7       __exit                     10017be7 f   LIBCMT:crt0dat.obj
 0001:00016bf8       __cexit                    10017bf8 f   LIBCMT:crt0dat.obj
 0001:00016c07       __init_pointers            10017c07 f   LIBCMT:crt0dat.obj
 0001:00016c54       __SEH_prolog4              10017c54 f   LIBCMT:sehprolg4.obj
 0001:00016c99       __SEH_epilog4              10017c99 f   LIBCMT:sehprolg4.obj
 0001:00016cb0       __except_handler4          10017cb0 f   LIBCMT:chandler4.obj
 0001:00016e46       __forcdecpt_l              10017e46 f   LIBCMT:cvt.obj
 0001:00016eb7       __cropzeros_l              10017eb7 f   LIBCMT:cvt.obj
 0001:00016f37       __positive                 10017f37 f   LIBCMT:cvt.obj
 0001:00016f4d       __fassign_l                10017f4d f   LIBCMT:cvt.obj
 0001:00016f8d       __fassign                  10017f8d f   LIBCMT:cvt.obj
 0001:00016fc1       __forcdecpt                10017fc1 f   LIBCMT:cvt.obj
 0001:00016fcf       __cropzeros                10017fcf f   LIBCMT:cvt.obj
 0001:0001714a       __cftoe_l                  1001814a f   LIBCMT:cvt.obj
 0001:00017218       __cftoe                    10018218 f   LIBCMT:cvt.obj
 0001:00017236       __cftoa_l                  10018236 f   LIBCMT:cvt.obj
 0001:0001769c       __cftof_l                  1001869c f   LIBCMT:cvt.obj
 0001:00017755       __cftog_l                  10018755 f   LIBCMT:cvt.obj
 0001:0001784d       __cfltcvt_l                1001884d f   LIBCMT:cvt.obj
 0001:000178d3       __cfltcvt                  100188d3 f   LIBCMT:cvt.obj
 0001:000178f4       __initp_misc_cfltcvt_tab   100188f4 f   LIBCMT:cmiscdat.obj
 0001:00017913       __setdefaultprecision      10018913 f   LIBCMT:fp8.obj
 0001:0001793c       __ms_p5_test_fdiv          1001893c f   LIBCMT:testfdiv.obj
 0001:00017978       __ms_p5_mp_test_fdiv       10018978 f   LIBCMT:testfdiv.obj
 0001:000179a1       __stbuf                    100189a1 f   LIBCMT:_sftbuf.obj
 0001:00017a37       __ftbuf                    10018a37 f   LIBCMT:_sftbuf.obj
 0001:00017a66       __ioinit                   10018a66 f   LIBCMT:ioinit.obj
 0001:00017ca6       __ioterm                   10018ca6 f   LIBCMT:ioinit.obj
 0001:00017cf2       __setenvp                  10018cf2 f   LIBCMT:stdenvp.obj
 0001:00017f65       __setargv                  10018f65 f   LIBCMT:stdargv.obj
 0001:0001801e       ___crtGetEnvironmentStringsA 1001901e f   LIBCMT:a_env.obj
 0001:00018153       __RTC_Initialize           10019153 f   LIBCMT:initsect.obj
 0001:00018177       __RTC_Terminate            10019177 f   LIBCMT:initsect.obj
 0001:0001819b       ___heap_select             1001919b f   LIBCMT:heapinit.obj
 0001:000181f6       __heap_init                100191f6 f   LIBCMT:heapinit.obj
 0001:00018250       __heap_term                10019250 f   LIBCMT:heapinit.obj
 0001:000182c4       __fpclear                  100192c4 f   LIBCMT:fpinit.obj
 0001:000182c4       __initp_misc_winxfltr      100192c4 f   LIBCMT:winxfltr.obj
 0001:000182c5       __XcptFilter               100192c5 f   LIBCMT:winxfltr.obj
 0001:00018434       ___CppXcptFilter           10019434 f   LIBCMT:winxfltr.obj
 0001:0001844f       ___security_init_cookie    1001944f f   LIBCMT:gs_support.obj
 0001:000184e3       _asctime_s                 100194e3 f   LIBCMT:asctime.obj
 0001:000186d1       _asctime                   100196d1 f   LIBCMT:asctime.obj
 0001:00018dfa       ___tzset                   10019dfa f   LIBCMT:tzset.obj
 0001:00018e49       __isindst                  10019e49 f   LIBCMT:tzset.obj
 0001:00018e8a       __gmtime64_s               10019e8a f   LIBCMT:gmtime64.obj
 0001:000190c6       __get_daylight             1001a0c6 f   LIBCMT:timeset.obj
 0001:000190fa       __get_dstbias              1001a0fa f   LIBCMT:timeset.obj
 0001:0001912e       __get_timezone             1001a12e f   LIBCMT:timeset.obj
 0001:00019162       ___daylight                1001a162 f   LIBCMT:timeset.obj
 0001:00019168       ___dstbias                 1001a168 f   LIBCMT:timeset.obj
 0001:0001916e       ___timezone                1001a16e f   LIBCMT:timeset.obj
 0001:00019174       ___tzname                  1001a174 f   LIBCMT:timeset.obj
 0001:00019180       __alldiv                   1001a180 f   LIBCMT:lldiv.obj
 0001:00019230       __allrem                   1001a230 f   LIBCMT:llrem.obj
 0001:000192e2       ___getgmtimebuf            1001a2e2 f   LIBCMT:gmtime.obj
 0001:00019330       __trandisp1                1001a330 f   LIBCMT:87disp.obj
 0001:00019397       __trandisp2                1001a397 f   LIBCMT:87disp.obj
 0001:00019423       __rttospopde               1001a423     LIBCMT:87disp.obj
 0001:00019428       __rttospop                 1001a428     LIBCMT:87disp.obj
 0001:0001942a       __rtnospop                 1001a42a     LIBCMT:87disp.obj
 0001:0001942c       __rttosnpop                1001a42c     LIBCMT:87disp.obj
 0001:0001942d       __rtnospopde               1001a42d     LIBCMT:87disp.obj
 0001:00019434       __rtzeropop                1001a434     LIBCMT:87disp.obj
 0001:00019436       __rtzeronpop               1001a436     LIBCMT:87disp.obj
 0001:0001943b       __rtonepop                 1001a43b     LIBCMT:87disp.obj
 0001:0001943d       __rtonenpop                1001a43d     LIBCMT:87disp.obj
 0001:00019442       __tosnan1                  1001a442     LIBCMT:87disp.obj
 0001:0001946d       __nosnan2                  1001a46d     LIBCMT:87disp.obj
 0001:0001946f       __tosnan2                  1001a46f     LIBCMT:87disp.obj
 0001:00019497       __nan2                     1001a497     LIBCMT:87disp.obj
 0001:000194d6       __rtindfpop                1001a4d6     LIBCMT:87disp.obj
 0001:000194d8       __rtindfnpop               1001a4d8     LIBCMT:87disp.obj
 0001:000194e9       __rttosnpopde              1001a4e9     LIBCMT:87disp.obj
 0001:000194f3       __rtchsifneg               1001a4f3     LIBCMT:87disp.obj
 0001:00019500       __startTwoArgErrorHandling 1001a500 f   LIBCMT:genexcep.obj
 0001:00019517       __startOneArgErrorHandling 1001a517 f   LIBCMT:genexcep.obj
 0001:00019560       __twoToTOS                 1001a560 f   LIBCMT:common.obj
 0001:00019575       __load_CW                  1001a575 f   LIBCMT:common.obj
 0001:0001958c       __convertTOStoQNaN         1001a58c f   LIBCMT:common.obj
 0001:000195a5       __fload_withFB             1001a5a5 f   LIBCMT:common.obj
 0001:000195e8       __checkTOS_withFB          1001a5e8 f   LIBCMT:common.obj
 0001:000195fe       __fast_exit                1001a5fe f   LIBCMT:common.obj
 0001:0001960b       __math_exit                1001a60b f   LIBCMT:common.obj
 0001:00019635       __check_overflow_exit      1001a635 f   LIBCMT:common.obj
 0001:00019649       __check_range_exit         1001a649 f   LIBCMT:common.obj
 0001:000196f0       __CIsin_pentium4           1001a6f0 f   LIBCMT:sin_pentium4.obj
 0001:00019708       __sin_pentium4             1001a708     LIBCMT:sin_pentium4.obj
 0001:000198b8       __close_nolock             1001a8b8 f   LIBCMT:close.obj
 0001:0001994c       __close                    1001a94c f   LIBCMT:close.obj
 0001:00019a19       _fileno                    1001aa19 f   LIBCMT:fileno.obj
 0001:00019a19       __fileno                   1001aa19 f   LIBCMT:fileno.obj
 0001:00019a46       __freebuf                  1001aa46 f   LIBCMT:_freebuf.obj
 0001:00019a72       __openfile                 1001aa72 f   LIBCMT:_open.obj
 0001:00019d14       __getstream                1001ad14 f   LIBCMT:stream.obj
 0001:00019e3c       __local_unwind4            1001ae3c f   LIBCMT:exsup4.obj
 0001:00019f12       __seh_longjmp_unwind4@4    1001af12 f   LIBCMT:exsup4.obj
 0001:00019f2e       @_EH4_CallFilterFunc@8     1001af2e f   LIBCMT:exsup4.obj
 0001:00019f45       @_EH4_TransferToHandler@8  1001af45 f   LIBCMT:exsup4.obj
 0001:00019f5e       @_EH4_GlobalUnwind@4       1001af5e f   LIBCMT:exsup4.obj
 0001:00019f78       @_EH4_LocalUnwind@16       1001af78 f   LIBCMT:exsup4.obj
 0001:00019f8f       __vsnprintf_l              1001af8f f   LIBCMT:vsnprint.obj
 0001:0001a040       _vsnprintf                 1001b040 f   LIBCMT:vsnprint.obj
 0001:0001a040       __vsnprintf                1001b040 f   LIBCMT:vsnprint.obj
 0001:0001a05b       __filbuf                   1001b05b f   LIBCMT:_filbuf.obj
 0001:0001a17b       ?_ValidateRead@@YAHPBXI@Z  1001b17b f   LIBCMT:validate.obj
 0001:0001a17b       ?_ValidateExecute@@YAHP6GHXZ@Z 1001b17b f   LIBCMT:validate.obj
 0001:0001a17b       ?_ValidateWrite@@YAHPAXI@Z 1001b17b f   LIBCMT:validate.obj
 0001:0001a188       __mtinitlocks              1001b188 f   LIBCMT:mlock.obj
 0001:0001a1d1       __mtdeletelocks            1001b1d1 f   LIBCMT:mlock.obj
 0001:0001a226       __unlock                   1001b226 f   LIBCMT:mlock.obj
 0001:0001a23b       __mtinitlocknum            1001b23b f   LIBCMT:mlock.obj
 0001:0001a2fe       __lock                     1001b2fe f   LIBCMT:mlock.obj
 0001:0001a32f       ___sbh_heap_init           1001b32f f   LIBCMT:sbheap.obj
 0001:0001a377       ___sbh_find_block          1001b377 f   LIBCMT:sbheap.obj
 0001:0001a3a2       ___sbh_free_block          1001b3a2 f   LIBCMT:sbheap.obj
 0001:0001a6b6       ___sbh_alloc_new_region    1001b6b6 f   LIBCMT:sbheap.obj
 0001:0001a766       ___sbh_alloc_new_group     1001b766 f   LIBCMT:sbheap.obj
 0001:0001a86c       ___sbh_resize_block        1001b86c f   LIBCMT:sbheap.obj
 0001:0001ab4b       ___sbh_alloc_block         1001bb4b f   LIBCMT:sbheap.obj
 0001:0001ae2e       __getbuf                   1001be2e f   LIBCMT:_getbuf.obj
 0001:0001ae72       __write_nolock             1001be72 f   LIBCMT:write.obj
 0001:0001b438       __write                    1001c438 f   LIBCMT:write.obj
 0001:0001b514       __commit                   1001c514 f   LIBCMT:commit.obj
 0001:0001b5f5       __ftelli64_nolock          1001c5f5 f   LIBCMT:ftelli64.obj
 0001:0001b7a9       __ftelli64                 1001c7a9 f   LIBCMT:ftelli64.obj
 0001:0001b7f3       __lseek_nolock             1001c7f3 f   LIBCMT:lseek.obj
 0001:0001b865       __lseek                    1001c865 f   LIBCMT:lseek.obj
 0001:0001b941       __ftell_nolock             1001c941 f   LIBCMT:ftell.obj
 0001:0001bad9       __fseeki64_nolock          1001cad9 f   LIBCMT:fseeki64.obj
 0001:0001bb72       __fseeki64                 1001cb72 f   LIBCMT:fseeki64.obj
 0001:0001bbc1       __fcloseall                1001cbc1 f   LIBCMT:closeall.obj
 0001:0001be18       ___crtGetStringTypeA       1001ce18 f   LIBCMT:a_str.obj
 0001:0001c271       ___free_lc_time            1001d271 f   LIBCMT:inittime.obj
 0001:0001c401       ___init_time               1001d401 f   LIBCMT:inittime.obj
 0001:0001c474       ___free_lconv_num          1001d474 f   LIBCMT:initnum.obj
 0001:0001c4b4       ___init_numeric            1001d4b4 f   LIBCMT:initnum.obj
 0001:0001c67c       ___free_lconv_mon          1001d67c f   LIBCMT:initmon.obj
 0001:0001c705       ___init_monetary           1001d705 f   LIBCMT:initmon.obj
 0001:0001cbd7       ___updatetmbcinfo          1001dbd7 f   LIBCMT:mbctype.obj
 0001:0001ccf5       __setmbcp_nolock           1001dcf5 f   LIBCMT:mbctype.obj
 0001:0001cea0       __setmbcp                  1001dea0 f   LIBCMT:mbctype.obj
 0001:0001d03a       ___initmbctable            1001e03a f   LIBCMT:mbctype.obj
 0001:0001d058       _strcat_s                  1001e058 f   LIBCMT:strcat_s.obj
 0001:0001d0c9       _strncpy_s                 1001e0c9 f   LIBCMT:strncpy_s.obj
 0001:0001d6f6       ___get_qualified_locale    1001e6f6 f   LIBCMT:getqloc.obj
 0001:0001d8d9       _memcmp                    1001e8d9 f   LIBCMT:memcmp.obj
 0001:0001ef59       _strncmp                   1001ff59 f   LIBCMT:strncmp.obj
 0001:0001f020       _strpbrk                   10020020 f   LIBCMT:strpbrk.obj
 0001:0001f060       ___ansicp                  10020060 f   LIBCMT:convrtcp.obj
 0001:0001f0a7       ___convertcp               100200a7 f   LIBCMT:convrtcp.obj
 0001:0001f260       __alloca_probe_16          10020260 f   LIBCMT:alloca16.obj
 0001:0001f276       __alloca_probe_8           10020276     LIBCMT:alloca16.obj
 0001:0001f28c       __isctype_l                1002028c f   LIBCMT:isctype.obj
 0001:0001f342       __calloc_impl              10020342 f   LIBCMT:calloc.obj
 0001:0001f460       _realloc                   10020460 f   LIBCMT:realloc.obj
 0001:0001f67b       __recalloc                 1002067b f   LIBCMT:realloc.obj
 0001:0001f6c2       __initp_misc_winsig        100206c2 f   LIBCMT:winsig.obj
 0001:0001f70f       ___get_sigabrt             1002070f f   LIBCMT:winsig.obj
 0001:0001f71c       _raise                     1002071c f   LIBCMT:winsig.obj
 0001:0001f8d0       __aulldvrm                 100208d0 f   LIBCMT:ulldvrm.obj
 0001:0001f9b5       __get_sse2_info            100209b5 f   LIBCMT:cpu_disp.obj
 0001:0001fa15       ___sse2_available_init     10020a15 f   LIBCMT:cpu_disp.obj
 0001:0001fa22       ___crtMessageBoxA          10020a22 f   LIBCMT:crtmbox.obj
 0001:0001fbc0       __set_error_mode           10020bc0 f   LIBCMT:errmode.obj
 0001:0001fd41       ___crtGetLocaleInfoW       10020d41 f   LIBCMT:w_loc.obj
 0001:0001feb9       ___crtGetLocaleInfoA       10020eb9 f   LIBCMT:a_loc.obj
 0001:0001fef4       __global_unwind2           10020ef4 f   LIBCMT:exsup.obj
 0001:0001ff59       __local_unwind2            10020f59 f   LIBCMT:exsup.obj
 0001:0001ffdd       __abnormal_termination     10020fdd f   LIBCMT:exsup.obj
 0001:00020000       __NLG_Notify1              10021000 f   LIBCMT:exsup.obj
 0001:00020009       __NLG_Notify               10021009 f   LIBCMT:exsup.obj
 0001:00020020       __NLG_Dispatch             10021020     LIBCMT:exsup.obj
 0001:00020020       __NLG_Dispatch2            10021020     LIBCMT:exsup.obj
 0001:00020028       __NLG_Call                 10021028 f   LIBCMT:exsup.obj
 0001:0002002a       __NLG_Return2              1002102a     LIBCMT:exsup.obj
 0001:0002002b       __lseeki64_nolock          1002102b f   LIBCMT:lseeki64.obj
 0001:000200ae       __lseeki64                 100210ae f   LIBCMT:lseeki64.obj
 0001:000201c7       __isatty                   100211c7 f   LIBCMT:isatty.obj
 0001:00020225       __wctomb_s_l               10021225 f   LIBCMT:wctomb.obj
 0001:00020384       _wctomb_s                  10021384 f   LIBCMT:wctomb.obj
 0001:0002039f       __isleadbyte_l             1002139f f i LIBCMT:_wctype.obj
 0001:000203d5       _isleadbyte                100213d5 f i LIBCMT:_wctype.obj
 0001:000203f0       __ValidateImageBase        100213f0 f   LIBCMT:pesect.obj
 0001:00020420       __FindPESection            10021420 f   LIBCMT:pesect.obj
 0001:00020462       __IsNonwritableInCurrentImage 10021462 f   LIBCMT:pesect.obj
 0001:000204ce       __initp_misc_rand_s        100214ce f   LIBCMT:rand_s.obj
 0001:000204d8       __initp_misc_initcrit      100214d8 f   LIBCMT:initcrit.obj
 0001:000204f2       ___crtInitCritSecAndSpinCount 100214f2 f   LIBCMT:initcrit.obj
 0001:000205c0       _strrchr                   100215c0 f   LIBCMT:strrchr.obj
 0001:000205ed       __tolower_l                100215ed f   LIBCMT:tolower.obj
 0001:00020704       _tolower                   10021704 f   LIBCMT:tolower.obj
 0001:0002072b       __atodbl_l                 1002172b f   LIBCMT:atodbl.obj
 0001:000207d1       __atoflt_l                 100217d1 f   LIBCMT:atodbl.obj
 0001:00020877       __fptostr                  10021877 f   LIBCMT:_fptostr.obj
 0001:00020934       ___dtold                   10021934 f   LIBCMT:cfout.obj
 0001:000209ef       __fltout2                  100219ef f   LIBCMT:cfout.obj
 0001:00020a80       __alldvrm                  10021a80 f   LIBCMT:lldvrm.obj
 0001:00020b60       __aullshr                  10021b60 f   LIBCMT:ullshr.obj
 0001:00020b7f       __fptrap                   10021b7f f   LIBCMT:crt0fp.obj
 0001:00020b88       __controlfp_s              10021b88 f   LIBCMT:contrlfp.obj
 0001:00020c43       __ismbblead                10021c43 f   LIBCMT:ismbbyte.obj
 0001:00020c56       __getenv_helper_nolock     10021c56 f   LIBCMT:getenv.obj
 0001:00020cd7       __87except                 10021cd7 f   LIBCMT:87except.obj
 0001:00020dd3       __set_osfhnd               10021dd3 f   LIBCMT:osfinfo.obj
 0001:00020e50       __free_osfhnd              10021e50 f   LIBCMT:osfinfo.obj
 0001:00020ed1       __get_osfhandle            10021ed1 f   LIBCMT:osfinfo.obj
 0001:00020f42       ___lock_fhandle            10021f42 f   LIBCMT:osfinfo.obj
 0001:00020fe2       __unlock_fhandle           10021fe2 f   LIBCMT:osfinfo.obj
 0001:00021004       __alloc_osfhnd             10022004 f   LIBCMT:osfinfo.obj
 0001:000217e1       __sopen_helper             100227e1 f   LIBCMT:open.obj
 0001:000218ad       __sopen_s                  100228ad f   LIBCMT:open.obj
 0001:000218cb       __mbsicmp_l                100228cb f   LIBCMT:mbsicmp.obj
 0001:00021ae5       __mbsicmp                  10022ae5 f   LIBCMT:mbsicmp.obj
 0001:00021af8       __mbsnbcmp_l               10022af8 f   LIBCMT:mbsnbcmp.obj
 0001:00021c61       __mbsnbcmp                 10022c61 f   LIBCMT:mbsnbcmp.obj
 0001:00021c78       __read_nolock              10022c78 f   LIBCMT:read.obj
 0001:0002221a       __read                     1002321a f   LIBCMT:read.obj
 0001:000222f6       __mbtowc_l                 100232f6 f   LIBCMT:mbtowc.obj
 0001:00022409       _mbtowc                    10023409 f   LIBCMT:mbtowc.obj
 0001:00022420       __putwch_nolock            10023420 f   LIBCMT:putwch.obj
 0001:000224e2       ___ascii_stricmp           100234e2 f   LIBCMT:stricmp.obj
 0001:00022517       __stricmp_l                10023517 f   LIBCMT:stricmp.obj
 0001:000225ea       __stricmp                  100235ea f   LIBCMT:stricmp.obj
 0001:0002263a       __strnicmp_l               1002363a f   LIBCMT:strnicmp.obj
 0001:0002272a       __strnicmp                 1002372a f   LIBCMT:strnicmp.obj
 0001:0002272a       _strnicmp                  1002372a f   LIBCMT:strnicmp.obj
 0001:00022786       __ld12tod                  10023786 f   LIBCMT:intrncvt.obj
 0001:00022cc8       __ld12tof                  10023cc8 f   LIBCMT:intrncvt.obj
 0001:0002320a       ___strgtold12_l            1002420a f   LIBCMT:strgtold.obj
 0001:000238ce       _$I10_OUTPUT               100248ce f   LIBCMT:x10fout.obj
 0001:000242c4       __control87                100252c4 f i LIBCMT:ieee87.obj
 0001:000245c7       __mbsnbicoll_l             100255c7 f   LIBCMT:mbsnbico.obj
 0001:000246b3       __mbsnbicoll               100256b3 f   LIBCMT:mbsnbico.obj
 0001:000246ca       ___wtomb_environ           100256ca f   LIBCMT:wtombenv.obj
 0001:0002475f       __raise_exc_ex             1002575f f   LIBCMT:fpexcept.obj
 0001:00024a39       __raise_exc                10025a39 f   LIBCMT:fpexcept.obj
 0001:00024a5a       __handle_exc               10025a5a f   LIBCMT:fpexcept.obj
 0001:00024c3b       __set_errno_from_matherr   10025c3b f   LIBCMT:fpexcept.obj
 0001:00024c63       __statfp                   10025c63 f   LIBCMT:fpctrl.obj
 0001:00024c6e       __clrfp                    10025c6e f   LIBCMT:fpctrl.obj
 0001:00024c7a       __ctrlfp                   10025c7a f   LIBCMT:fpctrl.obj
 0001:00024ca1       __set_statfp               10025ca1 f   LIBCMT:fpctrl.obj
 0001:00024cf7       ___set_fpsr_sse2           10025cf7 f   LIBCMT:fpctrl.obj
 0001:00024d69       __chsize_nolock            10025d69 f   LIBCMT:chsize.obj
 0001:00024f1d       __setmode_nolock           10025f1d f   LIBCMT:setmode.obj
 0001:00024fd9       __get_fmode                10025fd9 f   LIBCMT:setmode.obj
 0001:0002500d       ___initconout              1002600d f   LIBCMT:initcon.obj
 0001:0002502c       ___termcon                 1002602c f   LIBCMT:initcon.obj
 0001:00025060       ___ascii_strnicmp          10026060 f   LIBCMT:_strnicm.obj
 0001:000250c1       ___mtold12                 100260c1 f   LIBCMT:mantold.obj
 0001:00025616       ___crtCompareStringA       10026616 f   LIBCMT:a_cmp.obj
 0001:00025656       __strnicoll_l              10026656 f   LIBCMT:strnicol.obj
 0001:000257f8       ___crtsetenv               100267f8 f   LIBCMT:setenv.obj
 0001:00025a3f       __set_exp                  10026a3f f   LIBCMT:util.obj
 0001:00025a69       __decomp                   10026a69 f   LIBCMT:util.obj
 0001:00025b18       __strdup                   10026b18 f   LIBCMT:strdup.obj
 0001:00025b68       __mbschr_l                 10026b68 f   LIBCMT:mbschr.obj
 0001:00025c22       __mbschr                   10026c22 f   LIBCMT:mbschr.obj
 0001:00025c36       _closesocket@4             10026c36 f   WS2_32:WS2_32.dll
 0001:00025c3c       ___WSAFDIsSet@8            10026c3c f   WS2_32:WS2_32.dll
 0001:00025c42       _select@20                 10026c42 f   WS2_32:WS2_32.dll
 0001:00025c48       _WSAGetLastError@0         10026c48 f   WS2_32:WS2_32.dll
 0001:00025c4e       _connect@12                10026c4e f   WS2_32:WS2_32.dll
 0001:00025c54       _htons@4                   10026c54 f   WS2_32:WS2_32.dll
 0001:00025c5a       _gethostbyname@4           10026c5a f   WS2_32:WS2_32.dll
 0001:00025c60       _inet_addr@4               10026c60 f   WS2_32:WS2_32.dll
 0001:00025c66       _ioctlsocket@12            10026c66 f   WS2_32:WS2_32.dll
 0001:00025c6c       _setsockopt@20             10026c6c f   WS2_32:WS2_32.dll
 0001:00025c72       _socket@12                 10026c72 f   WS2_32:WS2_32.dll
 0001:00025c78       _listen@8                  10026c78 f   WS2_32:WS2_32.dll
 0001:00025c7e       _bind@12                   10026c7e f   WS2_32:WS2_32.dll
 0001:00025c84       _accept@12                 10026c84 f   WS2_32:WS2_32.dll
 0001:00025c8a       _WSAStartup@8              10026c8a f   WS2_32:WS2_32.dll
 0001:00025c90       _send@16                   10026c90 f   WS2_32:WS2_32.dll
 0001:00025c96       _recv@16                   10026c96 f   WS2_32:WS2_32.dll
 0001:00025c9c       _inet_ntoa@4               10026c9c f   WS2_32:WS2_32.dll
 0001:00025ca2       _getpeername@12            10026ca2 f   WS2_32:WS2_32.dll
 0001:00025ca8       _RtlUnwind@16              10026ca8 f   kernel32:KERNEL32.dll
 0001:00025cae       __filelength               10026cae f   LIBCMT:flength.obj
 0001:00025cae       _filelength                10026cae f   LIBCMT:flength.obj
 0002:00000000       __imp__OutputDebugStringA@4 10029000     kernel32:KERNEL32.dll
 0002:00000004       __imp__DeleteCriticalSection@4 10029004     kernel32:KERNEL32.dll
 0002:00000008       __imp__EnterCriticalSection@4 10029008     kernel32:KERNEL32.dll
 0002:0000000c       __imp__LeaveCriticalSection@4 1002900c     kernel32:KERNEL32.dll
 0002:00000010       __imp__InitializeCriticalSection@4 10029010     kernel32:KERNEL32.dll
 0002:00000014       __imp__CompareStringW@24   10029014     kernel32:KERNEL32.dll
 0002:00000018       __imp__CompareStringA@24   10029018     kernel32:KERNEL32.dll
 0002:0000001c       __imp__SetEndOfFile@4      1002901c     kernel32:KERNEL32.dll
 0002:00000020       __imp__WriteConsoleW@20    10029020     kernel32:KERNEL32.dll
 0002:00000024       __imp__GetConsoleOutputCP@0 10029024     kernel32:KERNEL32.dll
 0002:00000028       __imp__ReadFile@20         10029028     kernel32:KERNEL32.dll
 0002:0000002c       __imp__CreateFileA@28      1002902c     kernel32:KERNEL32.dll
 0002:00000030       __imp__SetStdHandle@8      10029030     kernel32:KERNEL32.dll
 0002:00000034       __imp__GetLocaleInfoW@16   10029034     kernel32:KERNEL32.dll
 0002:00000038       __imp__LoadLibraryA@4      10029038     kernel32:KERNEL32.dll
 0002:0000003c       __imp__IsValidCodePage@4   1002903c     kernel32:KERNEL32.dll
 0002:00000040       __imp__IsValidLocale@8     10029040     kernel32:KERNEL32.dll
 0002:00000044       __imp__EnumSystemLocalesA@8 10029044     kernel32:KERNEL32.dll
 0002:00000048       __imp__GetLocaleInfoA@16   10029048     kernel32:KERNEL32.dll
 0002:0000004c       __imp__GetUserDefaultLCID@0 1002904c     kernel32:KERNEL32.dll
 0002:00000050       __imp__GetOEMCP@0          10029050     kernel32:KERNEL32.dll
 0002:00000054       __imp__GetACP@0            10029054     kernel32:KERNEL32.dll
 0002:00000058       __imp__GetStringTypeW@16   10029058     kernel32:KERNEL32.dll
 0002:0000005c       __imp__GetStringTypeA@20   1002905c     kernel32:KERNEL32.dll
 0002:00000060       __imp__SetFilePointer@16   10029060     kernel32:KERNEL32.dll
 0002:00000064       __imp__FlushFileBuffers@4  10029064     kernel32:KERNEL32.dll
 0002:00000068       __imp__InterlockedExchange@8 10029068     kernel32:KERNEL32.dll
 0002:0000006c       __imp__InterlockedIncrement@4 1002906c     kernel32:KERNEL32.dll
 0002:00000070       __imp__HeapAlloc@12        10029070     kernel32:KERNEL32.dll
 0002:00000074       __imp__HeapValidate@12     10029074     kernel32:KERNEL32.dll
 0002:00000078       __imp__IsBadCodePtr@4      10029078     kernel32:KERNEL32.dll
 0002:0000007c       __imp__InterlockedDecrement@4 1002907c     kernel32:KERNEL32.dll
 0002:00000080       __imp__HeapFree@12         10029080     kernel32:KERNEL32.dll
 0002:00000084       __imp__HeapDestroy@4       10029084     kernel32:KERNEL32.dll
 0002:00000088       __imp__HeapCreate@12       10029088     kernel32:KERNEL32.dll
 0002:0000008c       __imp__WriteConsoleA@20    1002908c     kernel32:KERNEL32.dll
 0002:00000090       __imp__GetStdHandle@4      10029090     kernel32:KERNEL32.dll
 0002:00000094       __imp__SetEvent@4          10029094     kernel32:KERNEL32.dll
 0002:00000098       __imp__ResumeThread@4      10029098     kernel32:KERNEL32.dll
 0002:0000009c       __imp__WaitForMultipleObjects@16 1002909c     kernel32:KERNEL32.dll
 0002:000000a0       __imp__CloseHandle@4       100290a0     kernel32:KERNEL32.dll
 0002:000000a4       __imp__TerminateThread@8   100290a4     kernel32:KERNEL32.dll
 0002:000000a8       __imp__WaitForSingleObject@8 100290a8     kernel32:KERNEL32.dll
 0002:000000ac       __imp__CreateThread@24     100290ac     kernel32:KERNEL32.dll
 0002:000000b0       __imp__CreateEventA@16     100290b0     kernel32:KERNEL32.dll
 0002:000000b4       __imp__WideCharToMultiByte@32 100290b4     kernel32:KERNEL32.dll
 0002:000000b8       __imp__Sleep@4             100290b8     kernel32:KERNEL32.dll
 0002:000000bc       __imp__MultiByteToWideChar@24 100290bc     kernel32:KERNEL32.dll
 0002:000000c0       __imp__GetSystemTimeAsFileTime@4 100290c0     kernel32:KERNEL32.dll
 0002:000000c4       __imp__RtlUnwind@16        100290c4     kernel32:KERNEL32.dll
 0002:000000c8       __imp__RaiseException@16   100290c8     kernel32:KERNEL32.dll
 0002:000000cc       __imp__TerminateProcess@8  100290cc     kernel32:KERNEL32.dll
 0002:000000d0       __imp__GetCurrentProcess@0 100290d0     kernel32:KERNEL32.dll
 0002:000000d4       __imp__UnhandledExceptionFilter@4 100290d4     kernel32:KERNEL32.dll
 0002:000000d8       __imp__SetUnhandledExceptionFilter@4 100290d8     kernel32:KERNEL32.dll
 0002:000000dc       __imp__IsDebuggerPresent@0 100290dc     kernel32:KERNEL32.dll
 0002:000000e0       __imp__GetCurrentThreadId@0 100290e0     kernel32:KERNEL32.dll
 0002:000000e4       __imp__GetCommandLineA@0   100290e4     kernel32:KERNEL32.dll
 0002:000000e8       __imp__GetVersionExA@4     100290e8     kernel32:KERNEL32.dll
 0002:000000ec       __imp__GetProcessHeap@0    100290ec     kernel32:KERNEL32.dll
 0002:000000f0       __imp__GetLastError@0      100290f0     kernel32:KERNEL32.dll
 0002:000000f4       __imp__MoveFileA@8         100290f4     kernel32:KERNEL32.dll
 0002:000000f8       __imp__GetCPInfo@8         100290f8     kernel32:KERNEL32.dll
 0002:000000fc       __imp__LCMapStringA@24     100290fc     kernel32:KERNEL32.dll
 0002:00000100       __imp__LCMapStringW@24     10029100     kernel32:KERNEL32.dll
 0002:00000104       __imp__WriteFile@20        10029104     kernel32:KERNEL32.dll
 0002:00000108       __imp__GetModuleFileNameA@12 10029108     kernel32:KERNEL32.dll
 0002:0000010c       __imp__GetProcAddress@8    1002910c     kernel32:KERNEL32.dll
 0002:00000110       __imp__GetModuleHandleA@4  10029110     kernel32:KERNEL32.dll
 0002:00000114       __imp__TlsGetValue@4       10029114     kernel32:KERNEL32.dll
 0002:00000118       __imp__TlsAlloc@0          10029118     kernel32:KERNEL32.dll
 0002:0000011c       __imp__TlsSetValue@8       1002911c     kernel32:KERNEL32.dll
 0002:00000120       __imp__TlsFree@4           10029120     kernel32:KERNEL32.dll
 0002:00000124       __imp__SetLastError@4      10029124     kernel32:KERNEL32.dll
 0002:00000128       __imp__HeapSize@12         10029128     kernel32:KERNEL32.dll
 0002:0000012c       __imp__ExitProcess@4       1002912c     kernel32:KERNEL32.dll
 0002:00000130       __imp__SetHandleCount@4    10029130     kernel32:KERNEL32.dll
 0002:00000134       __imp__GetFileType@4       10029134     kernel32:KERNEL32.dll
 0002:00000138       __imp__GetStartupInfoA@4   10029138     kernel32:KERNEL32.dll
 0002:0000013c       __imp__FreeEnvironmentStringsA@4 1002913c     kernel32:KERNEL32.dll
 0002:00000140       __imp__GetEnvironmentStrings@0 10029140     kernel32:KERNEL32.dll
 0002:00000144       __imp__FreeEnvironmentStringsW@4 10029144     kernel32:KERNEL32.dll
 0002:00000148       __imp__GetEnvironmentStringsW@0 10029148     kernel32:KERNEL32.dll
 0002:0000014c       __imp__VirtualFree@12      1002914c     kernel32:KERNEL32.dll
 0002:00000150       __imp__QueryPerformanceCounter@4 10029150     kernel32:KERNEL32.dll
 0002:00000154       __imp__GetTickCount@0      10029154     kernel32:KERNEL32.dll
 0002:00000158       __imp__GetCurrentProcessId@0 10029158     kernel32:KERNEL32.dll
 0002:0000015c       __imp__GetTimeZoneInformation@4 1002915c     kernel32:KERNEL32.dll
 0002:00000160       __imp__VirtualAlloc@16     10029160     kernel32:KERNEL32.dll
 0002:00000164       __imp__HeapReAlloc@16      10029164     kernel32:KERNEL32.dll
 0002:00000168       __imp__GetConsoleCP@0      10029168     kernel32:KERNEL32.dll
 0002:0000016c       __imp__GetConsoleMode@8    1002916c     kernel32:KERNEL32.dll
 0002:00000170       __imp__SetEnvironmentVariableA@8 10029170     kernel32:KERNEL32.dll
 0002:00000174       \177KERNEL32_NULL_THUNK_DATA 10029174     kernel32:KERNEL32.dll
 0002:00000178       __imp__MessageBoxA@16      10029178     user32:USER32.dll
 0002:0000017c       \177USER32_NULL_THUNK_DATA 1002917c     user32:USER32.dll
 0002:00000180       __imp__WSAStartup@8        10029180     WS2_32:WS2_32.dll
 0002:00000184       __imp__accept@12           10029184     WS2_32:WS2_32.dll
 0002:00000188       __imp__bind@12             10029188     WS2_32:WS2_32.dll
 0002:0000018c       __imp__listen@8            1002918c     WS2_32:WS2_32.dll
 0002:00000190       __imp__socket@12           10029190     WS2_32:WS2_32.dll
 0002:00000194       __imp__setsockopt@20       10029194     WS2_32:WS2_32.dll
 0002:00000198       __imp__send@16             10029198     WS2_32:WS2_32.dll
 0002:0000019c       __imp__inet_addr@4         1002919c     WS2_32:WS2_32.dll
 0002:000001a0       __imp__gethostbyname@4     100291a0     WS2_32:WS2_32.dll
 0002:000001a4       __imp__htons@4             100291a4     WS2_32:WS2_32.dll
 0002:000001a8       __imp__connect@12          100291a8     WS2_32:WS2_32.dll
 0002:000001ac       __imp__WSAGetLastError@0   100291ac     WS2_32:WS2_32.dll
 0002:000001b0       __imp__select@20           100291b0     WS2_32:WS2_32.dll
 0002:000001b4       __imp____WSAFDIsSet@8      100291b4     WS2_32:WS2_32.dll
 0002:000001b8       __imp__closesocket@4       100291b8     WS2_32:WS2_32.dll
 0002:000001bc       __imp__inet_ntoa@4         100291bc     WS2_32:WS2_32.dll
 0002:000001c0       __imp__recv@16             100291c0     WS2_32:WS2_32.dll
 0002:000001c4       __imp__getpeername@12      100291c4     WS2_32:WS2_32.dll
 0002:000001c8       __imp__ioctlsocket@12      100291c8     WS2_32:WS2_32.dll
 0002:000001cc       \177WS2_32_NULL_THUNK_DATA 100291cc     WS2_32:WS2_32.dll
 0002:000001d0       ___xc_a                    100291d0     LIBCMT:crt0init.obj
 0002:00000204       ___xc_z                    10029204     LIBCMT:crt0init.obj
 0002:00000208       ___xi_a                    10029208     LIBCMT:crt0init.obj
 0002:0000022c       ___xi_z                    1002922c     LIBCMT:crt0init.obj
 0002:00000230       ___xp_a                    10029230     LIBCMT:crt0init.obj
 0002:0000023c       ___xp_z                    1002923c     LIBCMT:crt0init.obj
 0002:00000240       ___xt_a                    10029240     LIBCMT:crt0init.obj
 0002:00000248       ___xt_z                    10029248     LIBCMT:crt0init.obj
 0002:00000250       ??_C@_0P@GHFPNOJB@bad?5allocation?$AA@ 10029250     CirBuffer.obj
 0002:00000264       ??_7bad_alloc@std@@6B@     10029264     ClientSocket.obj
 0002:0000026c       ??_C@_0BD@BOMDGINO@?$LP?M?$LL?$KH?$LG?K?A?$KM?$LN?S?$LG?O?$LP?$KK?4?4?4?6?$AA@ 1002926c     ClientSocket.obj
 0002:00000280       ??_C@_0CO@NHMNPHBL@CATCH?3?5?$CK?$CK?$CK?5SAFE_DELETE?$CI?$CJ?5crash?$CB?5@ 10029280     ClientSocket.obj
 0002:000002b0       ??_C@_0BH@FGBCCNCJ@?4?2Src?2ClientSocket?4cpp?$AA@ 100292b0     ClientSocket.obj
 0002:000002c8       ??_C@_0BI@PKIBPNBE@?$KB?oIF_OK?$CI?$CFs?$CJ?$KB?o?5in?5?$CFs?0?5?$CFd?$AA@ 100292c8     ClientSocket.obj
 0002:000002e0       ??_C@_09OFLCIBHN@m_pSocket?$AA@ 100292e0     ClientSocket.obj
 0002:000002ec       ??_C@_0CP@KIBIFIMK@CATCH?3?5?$CK?$CK?$CK?5SAFE_RELEASE?$CI?$CJ?5crash?$CB@ 100292ec     ClientSocket.obj
 0002:00000320       ??_7CClientSocket@net@@6B@ 10029320     ClientSocket.obj
 0002:00000340       ??_C@_0BP@IDJLGPJO@CClientSocket?3?3Init?$CI?$CJ?0?5connect?$AA@ 10029340     ClientSocket.obj
 0002:00000360       ??_C@_0BO@LEIOMEKM@CSocket?3?3IsValidPt?$CIm_pSocket?$CJ?$AA@ 10029360     ClientSocket.obj
 0002:00000380       ??_C@_0CN@BNLJMCCP@CClientSocket?3?3Init?$CI?$CJ?0?5select?0?5c@ 10029380     ClientSocket.obj
 0002:000003b0       ??_C@_0DB@CHFPFLC@CClientSocket?3?3Init?$CI?$CJ?0?5select?0?5c@ 100293b0     ClientSocket.obj
 0002:000003e4       ??_C@_0CO@CBLPMBI@CClientSocket?3?3Init?$CI?$CJ?0?5select?0?5c@ 100293e4     ClientSocket.obj
 0002:00000414       ??_C@_0CP@LBJEEOCN@CClientSocket?3?3Init?$CI?$CJ?0?5select?0?5c@ 10029414     ClientSocket.obj
 0002:00000444       ??_C@_0CF@OOKODPJG@CClientSocket?3?3Init?$CI?$CJ?0?5gethostby@ 10029444     ClientSocket.obj
 0002:0000046c       ??_C@_0CD@PIENINOE@CClientSocket?3?3Init?$CI?$CJ?0?5ioctlsock@ 1002946c     ClientSocket.obj
 0002:00000490       ??_C@_0CL@GMFPMLDL@CClientSocket?3?3Init?$CI?$CJ?0?5setsockop@ 10029490     ClientSocket.obj
 0002:000004bc       ??_C@_0CL@IPDMAJPF@CClientSocket?3?3Init?$CI?$CJ?0?5setsockop@ 100294bc     ClientSocket.obj
 0002:000004e8       ??_C@_0CO@INEGCBLD@CClientSocket?3?3Init?$CI?$CJ?0?5setsockop@ 100294e8     ClientSocket.obj
 0002:00000518       ??_C@_0BO@LCJBMAOJ@CClientSocket?3?3Init?$CI?$CJ?0?5socket?$AA@ 10029518     ClientSocket.obj
 0002:00000538       ??_C@_0BJ@NIHMOGFE@?$KB?oIF_NOT?$CI?$CFs?$CJ?$KB?o?5in?5?$CFs?0?5?$CFd?$AA@ 10029538     ClientSocket.obj
 0002:00000554       ??_C@_05DKBPGCGB@pszIP?$AA@ 10029554     ClientSocket.obj
 0002:0000055c       ??_C@_07OKOIDHAF@pSocket?$AA@ 1002955c     ClientSocket.obj
 0002:00000564       ??_C@_09JCMAABLL@NET_SERVE?$AA@ 10029564     KernelImpl.obj
 0002:00000570       ??_C@_09PCEFAIKE@m_pRouter?$AA@ 10029570     KernelImpl.obj
 0002:0000057c       ??_C@_0BF@OJJPMPCK@?4?2Src?2KernelImpl?4cpp?$AA@ 1002957c     KernelImpl.obj
 0002:00000594       ??_C@_0CA@OLONPEDC@Initialize?5MsgRouter?5success?$CB?$AN?6?$AA@ 10029594     KernelImpl.obj
 0002:000005b4       ??_C@_0O@KFJEJNDH@m_setServe?$FL0?$FN?$AA@ 100295b4     KernelImpl.obj
 0002:000005c8       ??_7logic_error@std@@6B@   100295c8     KernelImpl.obj
 0002:000005d4       ??_7length_error@std@@6B@  100295d4     KernelImpl.obj
 0002:000005e0       ??_7out_of_range@std@@6B@  100295e0     KernelImpl.obj
 0002:000005e8       ??_C@_0BM@PAPJHAGI@invalid?5map?1set?$DMT?$DO?5iterator?$AA@ 100295e8     KernelImpl.obj
 0002:00000604       ??_C@_0BE@JONHPENG@map?1set?$DMT?$DO?5too?5long?$AA@ 10029604     KernelImpl.obj
 0002:00000618       ??_C@_0BD@OLBABOEK@vector?$DMT?$DO?5too?5long?$AA@ 10029618     KernelImpl.obj
 0002:0000062c       ??_C@_07LFBGOANP@pIServe?$AA@ 1002962c     KernelImpl.obj
 0002:00000634       ??_C@_06NMPDJBNJ@pServe?$AA@ 10029634     KernelImpl.obj
 0002:0000063c       ??_C@_0BA@DNPHBMKH@?5?5?9?9?$DORun?5OK?$CB?$CB?$CB?5?$AA@ 1002963c     KernelImpl.obj
 0002:0000064c       ??_C@_0BE@FOFMEEPG@?5?5?9?9?$DORun?5Failed?$CB?$CB?$CB?5?$AA@ 1002964c     KernelImpl.obj
 0002:00000660       ??_C@_0O@MIMNMIJE@pServe?9?$DORun?$CI?$CJ?$AA@ 10029660     KernelImpl.obj
 0002:00000670       ??_C@_0BD@BEIKBKCD@?5?5?9?9?$DOCreate?5OK?$CB?$CB?$CB?5?$AA@ 10029670     KernelImpl.obj
 0002:00000684       ??_C@_0BH@OAMJIGPP@?5?5?9?9?$DOCreate?5Failed?$CB?$CB?$CB?5?$AA@ 10029684     KernelImpl.obj
 0002:0000069c       ??_C@_0BC@GHJKCMA@pIServe?9?$DOCreate?$CI?$CJ?$AA@ 1002969c     KernelImpl.obj
 0002:000006b0       ??_C@_0BG@BJLAPACI@?5?5?5?9?9?$DOPrecreate?5OK?$CB?$CB?$CB?$AA@ 100296b0     KernelImpl.obj
 0002:000006c8       ??_C@_0BK@LPBDJOEC@?5?5?9?9?$DOPrecreate?5Failed?$CB?$CB?$CB?5?$AA@ 100296c8     KernelImpl.obj
 0002:000006e4       ??_C@_0BF@KDJNMCEH@pIServe?9?$DOPreCreate?$CI?$CJ?$AA@ 100296e4     KernelImpl.obj
 0002:000006fc       ??_C@_0M@PHHJCIBH@?5Destroy?$CB?$CB?$CB?$AA@ 100296fc     KernelImpl.obj
 0002:00000708       ??_C@_0P@KIONLLCB@?5PostDestoy?$CB?$CB?$CB?$AA@ 10029708     KernelImpl.obj
 0002:00000718       ??_C@_0O@MOGBJLJJ@Unknown?5Serve?$AA@ 10029718     KernelImpl.obj
 0002:00000728       ??_C@_03EKNLKKFC@bet?$AA@  10029728     KernelImpl.obj
 0002:0000072c       ??_C@_0BG@GFLCHCOL@ServeCreate?5success?$CB?6?$AA@ 1002972c     KernelImpl.obj
 0002:00000744       ??_C@_0BE@OJECAGPI@ServeCreate?5failed?6?$AA@ 10029744     KernelImpl.obj
 0002:0000075c       ??_7CKernelImpl@serve@@6B@ 1002975c     KernelImpl.obj
 0002:00000780       ??_C@_0N@CCOMDPNC@?$LM?S?T?XDLL?$LD?I?$LJ?$KG?$CB?$AA@ 10029780     KernelImpl.obj
 0002:00000790       ??_C@_0BA@CDDDEDFG@pKernel?9?$DOInit?$CI?$CJ?$AA@ 10029790     KernelImpl.obj
 0002:000007a0       ??_C@_07PHAHBAJD@pKernel?$AA@ 100297a0     KernelImpl.obj
 0002:000007ac       ??_7runtime_error@std@@6B@ 100297ac     ListenSocket.obj
 0002:000007b4       ??_C@_0CJ@NBBKAPNN@CListenSocket?3?3Listen?$CI?$CJ?0?5listen?0@ 100297b4     ListenSocket.obj
 0002:000007e0       ??_C@_0CH@HEOKFICK@CListenSocket?3?3Listen?$CI?$CJ?0?5bind?0?5f@ 100297e0     ListenSocket.obj
 0002:00000808       ??_C@_0EF@MFELOENL@CListenSocket?3?3Listen?$CI?$CJ?0?5ioctlso@ 10029808     ListenSocket.obj
 0002:00000850       ??_C@_0DL@KAKHNDM@CListenSocket?3?3Listen?$CI?$CJ?0?5setsock@ 10029850     ListenSocket.obj
 0002:0000088c       ??_C@_0DL@NAFAMFBO@CListenSocket?3?3Listen?$CI?$CJ?0?5setsock@ 1002988c     ListenSocket.obj
 0002:000008c8       ??_C@_0DO@FKPODGPL@CListenSocket?3?3Listen?$CI?$CJ?0?5setsock@ 100298c8     ListenSocket.obj
 0002:00000908       ??_C@_0CJ@CCLBFBEH@CListenSocket?3?3Listen?$CI?$CJ?0?5socket?0@ 10029908     ListenSocket.obj
 0002:00000938       ??_7failure@ios_base@std@@6B@ 10029938     ListenSocket.obj
 0002:00000940       ??_C@_0BB@MOGOBHAF@list?$DMT?$DO?5too?5long?$AA@ 10029940     ListenSocket.obj
 0002:00000954       ??_C@_0BF@OOHOMBOF@ios_base?3?3eofbit?5set?$AA@ 10029954     ListenSocket.obj
 0002:0000096c       ??_C@_0BG@FMKFHCIL@ios_base?3?3failbit?5set?$AA@ 1002996c     ListenSocket.obj
 0002:00000984       ??_C@_0BF@PHHKMMFD@ios_base?3?3badbit?5set?$AA@ 10029984     ListenSocket.obj
 0002:0000099c       ??_C@_0CJ@KPPKCNCL@CListenSocket?3?3Accept?$CI?$CJ?0?5select?0@ 1002999c     ListenSocket.obj
 0002:000009c8       ??_C@_0BE@MDJNBBHM@socket?3?$CFu?5ready?5now?$AA@ 100299c8     ListenSocket.obj
 0002:000009dc       ??_C@_0BG@POFMLNBM@found?5error?5socket?3?$CFu?$AA@ 100299dc     ListenSocket.obj
 0002:000009f4       ??_C@_0BG@HAPHOAPC@found?5block?5socket?3?$CFu?$AA@ 100299f4     ListenSocket.obj
 0002:00000a0c       ??_C@_0CJ@MBJFGJNO@CListenSocket?3?3Accept?$CI?$CJ?0?5accept?0@ 10029a0c     ListenSocket.obj
 0002:00000a38       ??_C@_0BI@EEJHONBL@CListenSocket?3?3Select?5?$CB?$AA@ 10029a38     ListenSocket.obj
 0002:00000a54       ??_7CCriticalSection@sbase@@6B@ 10029a54     MsgRouter.obj
 0002:00000a60       ??_C@_07CEAHLGJN@pNewMsg?$AA@ 10029a60     MsgRouter.obj
 0002:00000a68       ??_C@_0BJ@JHIBKNAM@this?9?$DOIsValidPort?$CInPort?$CJ?$AA@ 10029a68     MsgRouter.obj
 0002:00000a84       ??_C@_0BE@NEAHEEHP@?4?2Src?2MsgRouter?4cpp?$AA@ 10029a84     MsgRouter.obj
 0002:00000a98       ??_C@_0BM@PEIPPCAK@this?9?$DOIsValidPort?$CInPortSrc?$CJ?$AA@ 10029a98     MsgRouter.obj
 0002:00000ab4       ??_C@_0BM@IHJKGLAI@this?9?$DOIsValidPort?$CInPortDst?$CJ?$AA@ 10029ab4     MsgRouter.obj
 0002:00000ad4       ??_7CRouterPort@serve@@6B@ 10029ad4     MsgRouter.obj
 0002:00000b10       ??_7CMsgRouter@serve@@6B@  10029b10     MsgRouter.obj
 0002:00000b18       ??_C@_07PNBPLONM@pRouter?$AA@ 10029b18     MsgRouter.obj
 0002:00000b24       ??_7CMsg@sbase@@6B@        10029b24     NetClient.obj
 0002:00000b38       ??_C@_0BI@ENFFKDCI@?$KB?oASSERT?$CI?$CFs?$CJ?$KB?oin?5?$CFs?0?5?$CFd?$AA@ 10029b38     NetClient.obj
 0002:00000b50       ??_C@_0BL@OPIMGKI@?$CB?$CCMsg?5Precess?5By?5Default?$CB?$CC?$AA@ 10029b50     NetClient.obj
 0002:00000b70       ??_C@_0FE@NNMNDLEH@f?3?2work?2godswar?2godswar?2client?2g@ 10029b70     NetClient.obj
 0002:00000bc8       ??_7IClientSocketEvent@net@@6B@ 10029bc8     NetClient.obj
 0002:00000bd4       ??_C@_0BE@GNPGLAJA@?4?2Src?2NetClient?4cpp?$AA@ 10029bd4     NetClient.obj
 0002:00000bec       ??_7?$TEncryptClient@$0CA@$0PN@$06$0BP@$0HK@$0MP@$0OF@$0DP@@net@@6B@ 10029bec     NetClient.obj
 0002:00000c0c       ??_7CNetClient@@6BIClientSocketEvent@net@@@ 10029c0c     NetClient.obj
 0002:00000c1c       ??_7CNetClient@@6BINetClient@@@ 10029c1c     NetClient.obj
 0002:00000c40       ??_C@_0P@LJOCCJNC@szIP?5?$CG?$CG?5usPort?$AA@ 10029c40     NetClient.obj
 0002:00000c50       ??_C@_0BE@DBEHAHBE@size?5?$DM?$DN?5MAX_MSGSIZE?$AA@ 10029c50     NetServeImpl.obj
 0002:00000c68       ??_C@_0FJ@JIIEOILL@f?3?2work?2godswar?2godswar?2client?2g@ 10029c68     NetServeImpl.obj
 0002:00000cc8       ??_7IServeSocketEvent@net@@6B@ 10029cc8     NetServeImpl.obj
 0002:00000cdc       ??_7?$TEncryptServer@$0LCJNDMIE@$0MMGCEKNK@@net@@6B@ 10029cdc     NetServeImpl.obj
 0002:00000cf8       ??_C@_0P@CHKLNLI@m_pServeSocket?$AA@ 10029cf8     NetServeImpl.obj
 0002:00000d08       ??_C@_0BH@JBGBPJJO@?4?2Src?2NetServeImpl?4cpp?$AA@ 10029d08     NetServeImpl.obj
 0002:00000d20       ??_C@_0BD@BENFLDIM@m_pPort?9?$DOIsValid?$CI?$CJ?$AA@ 10029d20     NetServeImpl.obj
 0002:00000d34       ??_C@_0BM@KICKEJPL@buf?5?$HM?$HM?5nLen?5?$DO?$DN?5sizeof?$CIWORD?$CJ?$AA@ 10029d34     NetServeImpl.obj
 0002:00000d50       ??_C@_0BJ@KNEEFAMB@socket?5?$CB?$DN?5INVALID_SOCKET?$AA@ 10029d50     NetServeImpl.obj
 0002:00000d70       ??_7CNetworkServeImpl@ns@@6BIServeSocketEvent@net@@@ 10029d70     NetServeImpl.obj
 0002:00000d84       ??_7CNetworkServeImpl@ns@@6BIServe@serve@@@ 10029d84     NetServeImpl.obj
 0002:00000dbc       ??_C@_0CG@LHPLLKO@pServe?9?$DOInit?$CInListenPort?0?$CC127?40?4@ 10029dbc     NetServeImpl.obj
 0002:00000de4       ??_C@_09PFCHIMEP@127?40?40?41?$AA@ 10029de4     NetServeImpl.obj
 0002:00000df0       ??_C@_0BN@NPAJKODJ@pServe?9?$DOInit?$CInListenPort?0IP?$CJ?$AA@ 10029df0     NetServeImpl.obj
 0002:00000e10       ??_C@_02MFEOMNPG@IP?$AA@   10029e10     NetServeImpl.obj
 0002:00000e14       ??_C@_0L@CIOMKPMB@ListenPort?$AA@ 10029e14     NetServeImpl.obj
 0002:00000e20       ??_C@_0N@HNDPMPID@?4?1config?4ini?$AA@ 10029e20     NetServeImpl.obj
 0002:00000e30       ??_C@_06JIODDOFH@System?$AA@ 10029e30     NetServeImpl.obj
 0002:00000e38       ??_C@_05CGPHLMP@pPort?$AA@ 10029e38     NetServeImpl.obj
 0002:00000e40       ??_C@_0BE@CNBAJHEN@?$FL?Q?$LJ?H?k?$FN?O?$PL?O?$KC?J?$PN?A?$LP?3?$CFd?$DL?6?$AA@ 10029e40     RouterPort.obj
 0002:00000e54       ??_C@_0M@IJNDJJKC@CRouterPort?$AA@ 10029e54     RouterPort.obj
 0002:00000e60       ??_C@_0BA@BCLAGOKD@?4?2Src?2Serve?4cpp?$AA@ 10029e60     Serve.obj
 0002:00000e74       ??_7CServe@serve@@6B@      10029e74     Serve.obj
 0002:00000e88       ??_C@_0P@ODCHMPIF@?M?x?B?g?O?$NP?$LD?L?F?t?$LG?$KP?$CB?6?$AA@ 10029e88     Serve.obj
 0002:00000e98       ??_C@_0BC@HACIPN@m_pThread?5?$CB?$DN?5NULL?$AA@ 10029e98     Serve.obj
 0002:00000eb0       ??_7facet@locale@std@@6B@  10029eb0     ServeSocket.obj
 0002:00000eb4       ??_C@_0BG@EFNNMLOA@?4?2Src?2ServeSocket?4cpp?$AA@ 10029eb4     ServeSocket.obj
 0002:00000ecc       ??_C@_0L@MMNLPAAM@pEncryptor?$AA@ 10029ecc     ServeSocket.obj
 0002:00000edc       ??_7CListenSocket@net@@6B@ 10029edc     ServeSocket.obj
 0002:00000ee0       ??_C@_0BA@ELKIONDK@bad?5locale?5name?$AA@ 10029ee0     ServeSocket.obj
 0002:00000ef4       ??_7?$num_put@DV?$ostreambuf_iterator@DU?$char_traits@D@std@@@std@@@std@@6B@ 10029ef4     ServeSocket.obj
 0002:00000f18       ??_C@_01GFHCPBMG@C?$AA@    10029f18     ServeSocket.obj
 0002:00000f1c       ??_C@_05LAPONLG@false?$AA@ 10029f1c     ServeSocket.obj
 0002:00000f24       ??_C@_04LOAJBDKD@true?$AA@ 10029f24     ServeSocket.obj
 0002:00000f30       ??_7?$numpunct@D@std@@6B@  10029f30     ServeSocket.obj
 0002:00000f4c       ??_7CServeSocket@net@@6B@  10029f4c     ServeSocket.obj
 0002:00000f74       ??_C@_08EPJLHIJG@bad?5cast?$AA@ 10029f74     ServeSocket.obj
 0002:00000f80       ??_C@_0BN@EKMGIBPM@pSocket?9?$DOInit?$CInServePort?0IP?$CJ?$AA@ 10029f80     ServeSocket.obj
 0002:00000fa0       ??_C@_01KGKMHCOC@e?$AA@    10029fa0     ServeSocket.obj
 0002:00000fa4       ??_C@_01DDCIFGEA@E?$AA@    10029fa4     ServeSocket.obj
 0002:00000fa8       ??_C@_02EAOCLKAK@ld?$AA@   10029fa8     ServeSocket.obj
 0002:00000fac       ??_C@_02BDDLJJBK@lu?$AA@   10029fac     ServeSocket.obj
 0002:00000fb0       ??_C@_02HIKPPMOK@Ld?$AA@   10029fb0     ServeSocket.obj
 0002:00000fb4       ??_C@_02CLHGNPPK@Lu?$AA@   10029fb4     ServeSocket.obj
 0002:00000fb8       __real@38aa95a5b7f87a0f    10029fb8     ServeSocket.obj
 0002:00000fc0       __real@4202a05f20000000    10029fc0     ServeSocket.obj
 0002:00000fc8       __real@4733426172c74d82    10029fc8     ServeSocket.obj
 0002:00000fd0       __real@0000000000000000    10029fd0     ServeSocket.obj
 0002:00000fd8       ??_C@_02BBAHNLBA@?$CFp?$AA@ 10029fd8     ServeSocket.obj
 0002:00000fdc       ??_C@_0BI@JMLGIDII@this?9?$DOGetSocket?$CIsocket?$CJ?$AA@ 10029fdc     ServeSocket.obj
 0002:00000ff4       ??_C@_0BD@DLCDPE@?M?j?$LD?I?$LH?$KC?K?M?$CFd?L?u?O?$PL?O?$KC?$KD?$KB?$AA@ 10029ff4     ServeSocket.obj
 0002:00001008       ??_C@_0M@EEMCHEB@ptempSocket?$AA@ 1002a008     ServeSocket.obj
 0002:00001014       ??_C@_0BM@NMBFCONO@IF_NOT?5?$CIpBuf?5?$CG?$CG?5nSize?5?$DO?50?$CJ?4?$AA@ 1002a014     ServeSocket.obj
 0002:00001030       ??_C@_0BC@NPCIIAAB@pBuf?5?$CG?$CG?5nSize?5?$DO?50?$AA@ 1002a030     ServeSocket.obj
 0002:00001044       ??_C@_0BE@KEBLECNL@Accept?5connect?5?0IP?3?$AA@ 1002a044     ServeSocket.obj
 0002:00001058       ??_C@_0BD@JFJHIHHC@?0Connection?5count?3?$AA@ 1002a058     ServeSocket.obj
 0002:0000106c       ??_C@_01ICJEACDI@?$DL?$AA@ 1002a06c     ServeSocket.obj
 0002:00001070       ??_C@_0BE@OGMCCLPE@new?5CSocket?5failed?$CB?$AA@ 1002a070     ServeSocket.obj
 0002:00001084       ??_C@_03KADPLKNE@Net?$AA@  1002a084     Socket.obj
 0002:00001088       ??_C@_0CI@EEKJGJEB@ERROR?3?5WSAStartup?5Version?5not?5ma@ 1002a088     Socket.obj
 0002:000010b0       ??_C@_0CB@NBLIIBG@ERROR?3?5Init?5WSAStartup?$CI?$CJ?5failed?4@ 1002a0b0     Socket.obj
 0002:000010d4       ??_C@_0BN@MGIHOPPM@DUMP?3?5WSABASEERR?$CL?$CFd?0?5from?5?$CFs?$AA@ 1002a0d4     Socket.obj
 0002:000010f1       ??_C@_00CNPNBAHC@?$AA@     1002a0f1     Socket.obj
 0002:000010f4       ??_C@_0BB@GEAPJGND@?4?2Src?2Socket?4cpp?$AA@ 1002a0f4     Socket.obj
 0002:00001108       ??_C@_0BE@ICCDCGOG@Socket?$FL?$CFd?$FN?5closed?5?6?$AA@ 1002a108     Socket.obj
 0002:0000111c       ??_C@_0CN@MMILLAOH@CSocket?3?3Close?$CI?$CJ?0?5call?5?3?3closeso@ 1002a11c     Socket.obj
 0002:0000114c       ??_C@_0BJ@CDJAFOOI@Socket?$FL?$CFd?$FN?5close?5__Send?6?$AA@ 1002a14c     Socket.obj
 0002:00001168       ??_C@_0DB@LCGLDMGF@CSocket?3?3Send?$CI?$CJ?0?5Client?5close?5so@ 1002a168     Socket.obj
 0002:0000119c       ??_C@_0CH@EPFKIKGO@CSocket?3?3Send?$CI?$CJ?0?5call?5?3?3select?$CI?$CJ@ 1002a19c     Socket.obj
 0002:000011c4       ??_C@_0BJ@FAECCIO@Socket?$FL?$CFd?$FN?5close?5__Recv?6?$AA@ 1002a1c4     Socket.obj
 0002:000011e0       ??_C@_0DB@MENLCANP@CSocket?3?3Recv?$CI?$CJ?0?5Client?5close?5so@ 1002a1e0     Socket.obj
 0002:00001214       ??_C@_0BJ@JKPLCHBF@Client?5close?5the?5socket?4?$AA@ 1002a214     Socket.obj
 0002:00001230       ??_C@_0BD@CFKIPMAP@?M?x?B?g?M?$KI?Q?$LG?J?$KH?$LA?$NM?$KD?$KB0204?$AA@ 1002a230     Socket.obj
 0002:00001244       ??_C@_04FMCPDGOH@?$LE?m?N?s?$AA@ 1002a244     Socket.obj
 0002:0000124c       ??_C@_0CH@PKJLBFDA@CSocket?3?3Recv?$CI?$CJ?0?5call?5?3?3select?$CI?$CJ@ 1002a24c     Socket.obj
 0002:00001274       ??_C@_0BJ@GJCGBEMC@INVALID_SOCKET?5?$CB?$DN?5m_sock?$AA@ 1002a274     Socket.obj
 0002:00001294       ??_7CSocket@net@@6B@       1002a294     Socket.obj
 0002:00001298       ??_C@_0DB@DFPAKKKE@CSocket?3?3GetPeerIP?$CI?$CJ?0?5call?5?3?3get@ 1002a298     Socket.obj
 0002:000012cc       ??_C@_07OBKKGDJL@CSocket?$AA@ 1002a2cc     Socket.obj
 0002:000012d4       ??_C@_0CG@IMOAEIJN@Memory?5amount?5of?5Class?5?$FL?$CFs?$FN?5is?5e@ 1002a2d4     base:Heap.obj
 0002:000012fc       ??_C@_0CH@LEGOCCOE@Have?5?$FL?$CFd?$FN?5memory?5which?5did?5not?5r@ 1002a2fc     base:Heap.obj
 0002:00001324       ??_C@_0DC@CGJOEJAI@Class?5?$FL?$CFs?$FN?5have?5?$FL?$CFd?$FN?5memory?5whic@ 1002a324     base:Heap.obj
 0002:00001358       ??_C@_0BD@MDFIBPHF@?$CFs?5?$CFd?9?$CFd?9?$CFd?4?$CFu?4log?$AA@ 1002a358     base:SvrBase.obj
 0002:0000136c       ??_C@_09GKHEMCGE@?$CFs?5?9?9?5?$CFs?6?$AA@ 1002a36c     base:SvrBase.obj
 0002:00001378       ??_C@_02DPNLHKJD@a?$CL?$AA@ 1002a378     base:SvrBase.obj
 0002:0000137c       ??_C@_0BE@NEDKJCO@Log?1?$CFs?5?$CFd?9?$CFd?9?$CFd?4log?$AA@ 1002a37c     base:SvrBase.obj
 0002:00001390       ??_C@_01EEMJAFIK@?6?$AA@   1002a390     base:SvrBase.obj
 0002:00001394       ??_C@_03PFPIJLAH@SYS?$AA@  1002a394     base:SvrBase.obj
 0002:00001398       ??_C@_01KDCPPGHE@r?$AA@    1002a398     base:SvrBase.obj
 0002:0000139c       ??_C@_0CO@FMBFMCOF@size?5?$DO?$DN?52?$CKsizeof?$CIWORD?$CJ?5?$CG?$CG?5size?5?$DM@ 1002a39c     base:IMessage.obj
 0002:000013cc       ??_C@_0BD@EHONAFBI@?4?2Src?2IMessage?4cpp?$AA@ 1002a3cc     base:IMessage.obj
 0002:000013e0       ??_C@_0BA@EJCJCHJK@nsMsgSize?$DM?$DN2048?$AA@ 1002a3e0     base:Msg.obj
 0002:000013f0       ??_C@_0O@KONDLBHD@?4?2Src?2Msg?4cpp?$AA@ 1002a3f0     base:Msg.obj
 0002:00001400       ??_C@_0BH@NENJBLFK@nKeyLen?5?$DM?5_MAX_INISIZE?$AA@ 1002a400     base:IniFile.obj
 0002:00001418       ??_C@_0M@HIJCKINI@nKeyLen?5?$DO?50?$AA@ 1002a418     base:IniFile.obj
 0002:00001424       ??_C@_0BC@PHHCIDKO@?4?2Src?2IniFile?4cpp?$AA@ 1002a424     base:IniFile.obj
 0002:0000143c       ??_7CThread@sbase@@6B@     1002a43c     base:Thread.obj
 0002:00001440       ??_C@_0BA@JFNIOLAK@string?5too?5long?$AA@ 1002a440     libcpmt:string.obj
 0002:00001450       ??_C@_0BI@CFPLBAOH@invalid?5string?5position?$AA@ 1002a450     libcpmt:string.obj
 0002:0000146c       ??_7ios_base@std@@6B@      1002a46c     libcpmt:cout.obj
 0002:00001474       ??_7?$basic_ostream@DU?$char_traits@D@std@@@std@@6B@ 1002a474     libcpmt:cout.obj
 0002:0000147c       ??_7?$basic_ios@DU?$char_traits@D@std@@@std@@6B@ 1002a47c     libcpmt:cout.obj
 0002:00001484       ??_7?$basic_streambuf@DU?$char_traits@D@std@@@std@@6B@ 1002a484     libcpmt:cout.obj
 0002:000014c0       ??_7?$basic_filebuf@DU?$char_traits@D@std@@@std@@6B@ 1002a4c0     libcpmt:cout.obj
 0002:000014fc       ??_7?$ctype@D@std@@6B@     1002a4fc     libcpmt:cout.obj
 0002:0000152c       ??_7?$codecvt@DDH@std@@6B@ 1002a52c     libcpmt:cout.obj
 0002:0000154c       ??_8?$basic_ostream@DU?$char_traits@D@std@@@std@@7B@ 1002a54c     libcpmt:cout.obj
 0002:00001558       ??_7_Locimp@locale@std@@6B@ 1002a558     libcpmt:locale0.obj
 0002:0000155c       ??_C@_01NBENCBCI@?$CK?$AA@ 1002a55c     libcpmt:locale0.obj
 0002:00001560       ?_BADOFF@std@@3JB          1002a560     libcpmt:ios.obj
 0002:00001568       ??_7exception@std@@6B@     1002a568     LIBCMT:stdexcpt.obj
 0002:00001570       ??_C@_0BC@EOODALEL@Unknown?5exception?$AA@ 1002a570     LIBCMT:stdexcpt.obj
 0002:00001588       ??_7bad_cast@std@@6B@      1002a588     LIBCMT:stdexcpt.obj
 0002:00001594       ??_7type_info@@6B@         1002a594     LIBCMT:typinfo.obj
 0002:000015b8       __FPinit                   1002a5b8     LIBCMT:fpinit.obj
 0002:000015bc       __FPmtinit                 1002a5bc     LIBCMT:fpinit.obj
 0002:000015c0       __FPmtterm                 1002a5c0     LIBCMT:fpinit.obj
 0002:000015c4       __pDefaultRawDllMain       1002a5c4     LIBCMT:dllcrt0.obj
 0002:000015c4       __pRawDllMain              1002a5c4     LIBCMT:dllcrt0.obj
 0002:000015c8       __pDestructExceptionObject 1002a5c8     LIBCMT:frame.obj
 0002:000015d0       ??_7bad_exception@std@@6B@ 1002a5d0     LIBCMT:frame.obj
 0002:000015d8       ??_C@_0O@DPKOEFFH@bad?5exception?$AA@ 1002a5d8     LIBCMT:frame.obj
 0002:000015e8       ??_C@_07LCBHPJJN@LC_TIME?$AA@ 1002a5e8     LIBCMT:setlocal.obj
 0002:000015f0       ??_C@_0L@DLHIECNL@LC_NUMERIC?$AA@ 1002a5f0     LIBCMT:setlocal.obj
 0002:000015fc       ??_C@_0M@MIENIKLA@LC_MONETARY?$AA@ 1002a5fc     LIBCMT:setlocal.obj
 0002:00001608       ??_C@_08EADHIDAD@LC_CTYPE?$AA@ 1002a608     LIBCMT:setlocal.obj
 0002:00001614       ??_C@_0L@KFJHEKIK@LC_COLLATE?$AA@ 1002a614     LIBCMT:setlocal.obj
 0002:00001620       ??_C@_06NEFDFEKB@LC_ALL?$AA@ 1002a620     LIBCMT:setlocal.obj
 0002:00001628       ___lc_category             1002a628     LIBCMT:setlocal.obj
 0002:000016f0       ??_C@_03EGDHDPFD@_?4?0?$AA@ 1002a6f0     LIBCMT:setlocal.obj
 0002:000016f4       ??_C@_01LFCBOECM@?4?$AA@   1002a6f4     LIBCMT:setlocal.obj
 0002:000016f8       ??_C@_01IDAFKMJL@_?$AA@    1002a6f8     LIBCMT:setlocal.obj
 0002:000016fc       ??_C@_01NEMOKFLO@?$DN?$AA@ 1002a6fc     LIBCMT:setlocal.obj
 0002:00001700       ??_C@_02BALPLPBG@?$DN?$DL?$AA@ 1002a700     LIBCMT:setlocal.obj
 0002:00001704       ??_C@_13NOLLCAOD@?$AA?$AA?$AA?$AA@ 1002a704     LIBCMT:a_map.obj
 0002:00001708       ___newctype                1002a708     LIBCMT:ctype.obj
 0002:00001a08       __wctype                   1002aa08     LIBCMT:ctype.obj
 0002:00001c10       ___newclmap                1002ac10     LIBCMT:ctype.obj
 0002:00001d90       ___newcumap                1002ad90     LIBCMT:ctype.obj
 0002:00001f10       ??_C@_0P@GGKDKEEG@runtime?5error?5?$AA@ 1002af10     LIBCMT:crt0msg.obj
 0002:00001f20       ??_C@_02PCIJFNDE@?$AN?6?$AA@ 1002af20     LIBCMT:crt0msg.obj
 0002:00001f24       ??_C@_0O@MJNIPGOH@TLOSS?5error?$AN?6?$AA@ 1002af24     LIBCMT:crt0msg.obj
 0002:00001f34       ??_C@_0N@BONNPDHF@SING?5error?$AN?6?$AA@ 1002af34     LIBCMT:crt0msg.obj
 0002:00001f44       ??_C@_0P@MBDAJNE@DOMAIN?5error?$AN?6?$AA@ 1002af44     LIBCMT:crt0msg.obj
 0002:00001f58       ??_C@_0JL@DFDOOABL@R6034?$AN?6An?5application?5has?5made?5a@ 1002af58     LIBCMT:crt0msg.obj
 0002:00001ff8       ??_C@_0PH@EPAFIJ@R6033?$AN?6?9?5Attempt?5to?5use?5MSIL?5cod@ 1002aff8     LIBCMT:crt0msg.obj
 0002:000020f0       ??_C@_0DD@BKEEABMM@R6032?$AN?6?9?5not?5enough?5space?5for?5lo@ 1002b0f0     LIBCMT:crt0msg.obj
 0002:00002128       ??_C@_0GD@OFKILIED@R6031?$AN?6?9?5Attempt?5to?5initialize?5t@ 1002b128     LIBCMT:crt0msg.obj
 0002:0000218c       ??_C@_0BP@LPMHJOKI@R6030?$AN?6?9?5CRT?5not?5initialized?$AN?6?$AA@ 1002b18c     LIBCMT:crt0msg.obj
 0002:000021ac       ??_C@_0CF@KJDAIALP@R6028?$AN?6?9?5unable?5to?5initialize?5he@ 1002b1ac     LIBCMT:crt0msg.obj
 0002:000021d4       ??_C@_0DF@GAKBPDFP@R6027?$AN?6?9?5not?5enough?5space?5for?5lo@ 1002b1d4     LIBCMT:crt0msg.obj
 0002:0000220c       ??_C@_0DF@IBLNNAIG@R6026?$AN?6?9?5not?5enough?5space?5for?5st@ 1002b20c     LIBCMT:crt0msg.obj
 0002:00002244       ??_C@_0CG@IOHKGFNJ@R6025?$AN?6?9?5pure?5virtual?5function?5c@ 1002b244     LIBCMT:crt0msg.obj
 0002:0000226c       ??_C@_0DF@JIJJFJDC@R6024?$AN?6?9?5not?5enough?5space?5for?5_o@ 1002b26c     LIBCMT:crt0msg.obj
 0002:000022a4       ??_C@_0CJ@EGEJHFME@R6019?$AN?6?9?5unable?5to?5open?5console?5@ 1002b2a4     LIBCMT:crt0msg.obj
 0002:000022d0       ??_C@_0CB@GNHNIELH@R6018?$AN?6?9?5unexpected?5heap?5error?$AN?6@ 1002b2d0     LIBCMT:crt0msg.obj
 0002:000022f4       ??_C@_0CN@FOLDKNG@R6017?$AN?6?9?5unexpected?5multithread?5@ 1002b2f4     LIBCMT:crt0msg.obj
 0002:00002324       ??_C@_0CM@FAHFJNHO@R6016?$AN?6?9?5not?5enough?5space?5for?5th@ 1002b324     LIBCMT:crt0msg.obj
 0002:00002350       ??_C@_0JG@LBKMGKLD@?$AN?6This?5application?5has?5requested@ 1002b350     LIBCMT:crt0msg.obj
 0002:000023e8       ??_C@_0CM@FLCNIPKK@R6009?$AN?6?9?5not?5enough?5space?5for?5en@ 1002b3e8     LIBCMT:crt0msg.obj
 0002:00002414       ??_C@_0CK@KMMJOAPP@R6008?$AN?6?9?5not?5enough?5space?5for?5ar@ 1002b414     LIBCMT:crt0msg.obj
 0002:00002440       ??_C@_0CF@HOHMHDEK@R6002?$AN?6?9?5floating?5point?5not?5load@ 1002b440     LIBCMT:crt0msg.obj
 0002:00002468       ??_C@_0CF@GOGNBNAK@Microsoft?5Visual?5C?$CL?$CL?5Runtime?5Lib@ 1002b468     LIBCMT:crt0msg.obj
 0002:00002490       ??_C@_02PHMGELLB@?6?6?$AA@ 1002b490     LIBCMT:crt0msg.obj
 0002:00002494       ??_C@_03KHICJKCI@?4?4?4?$AA@ 1002b494     LIBCMT:crt0msg.obj
 0002:00002498       ??_C@_0BH@DNAGHKFM@?$DMprogram?5name?5unknown?$DO?$AA@ 1002b498     LIBCMT:crt0msg.obj
 0002:000024b0       ??_C@_0BK@OFGJDLJJ@Runtime?5Error?$CB?6?6Program?3?5?$AA@ 1002b4b0     LIBCMT:crt0msg.obj
 0002:000024cc       ??_C@_0O@NLDKAIKN@EncodePointer?$AA@ 1002b4cc     LIBCMT:tidtable.obj
 0002:000024dc       ??_C@_0N@NHGLKGEC@KERNEL32?4DLL?$AA@ 1002b4dc     LIBCMT:tidtable.obj
 0002:000024ec       ??_C@_0O@KBPMFGHI@DecodePointer?$AA@ 1002b4ec     LIBCMT:tidtable.obj
 0002:000024fc       ??_C@_07PEJMOBNF@FlsFree?$AA@ 1002b4fc     LIBCMT:tidtable.obj
 0002:00002504       ??_C@_0M@JCPCPOEF@FlsSetValue?$AA@ 1002b504     LIBCMT:tidtable.obj
 0002:00002510       ??_C@_0M@GDNOONDI@FlsGetValue?$AA@ 1002b510     LIBCMT:tidtable.obj
 0002:0000251c       ??_C@_08KNHFBNJ@FlsAlloc?$AA@ 1002b51c     LIBCMT:tidtable.obj
 0002:00002530       ??_C@_1O@CEDCILHN@?$AA?$CI?$AAn?$AAu?$AAl?$AAl?$AA?$CJ?$AA?$AA@ 1002b530     LIBCMT:output.obj
 0002:00002540       ??_C@_06OJHGLDPL@?$CInull?$CJ?$AA@ 1002b540     LIBCMT:output.obj
 0002:00002548       ___lookuptable             1002b548     LIBCMT:output.obj
 0002:000025a8       ___lookuptable_s           1002b5a8     LIBCMT:outputs.obj
 0002:00002604       ??_C@_0P@MIGLKIOC@CorExitProcess?$AA@ 1002b604     LIBCMT:crt0dat.obj
 0002:00002614       ??_C@_0M@MBOPBNBK@mscoree?4dll?$AA@ 1002b614     LIBCMT:crt0dat.obj
 0002:00002620       ??_C@_05KLBDPFGC@e?$CL000?$AA@ 1002b620     LIBCMT:cvt.obj
 0002:00002628       __real@4150017ec0000000    1002b628     LIBCMT:testfdiv.obj
 0002:00002630       __real@4147ffff80000000    1002b630     LIBCMT:testfdiv.obj
 0002:00002638       ??_C@_0BK@NHEOCAHP@IsProcessorFeaturePresent?$AA@ 1002b638     LIBCMT:testfdiv.obj
 0002:00002654       ??_C@_08CPNIBGIE@KERNEL32?$AA@ 1002b654     LIBCMT:testfdiv.obj
 0002:00002660       ??_C@_02CLFPBFFP@TZ?$AA@   1002b660     LIBCMT:tzset.obj
 0002:00002664       ___dnames                  1002b664     LIBCMT:timeset.obj
 0002:0000267c       ___mnames                  1002b67c     LIBCMT:timeset.obj
 0002:000026b8       __DEFAULT_CW_in_mem        1002b6b8     LIBCMT:common.obj
 0002:000026ba       __pi_by_2_to_61            1002b6ba     LIBCMT:common.obj
 0002:00002fc4       ??_C@_08JCCMCCIL@HH?3mm?3ss?$AA@ 1002bfc4     LIBCMT:strftime.obj
 0002:00002fd0       ??_C@_0BE@CKGJFCPC@dddd?0?5MMMM?5dd?0?5yyyy?$AA@ 1002bfd0     LIBCMT:strftime.obj
 0002:00002fe4       ??_C@_08BPBNCDIB@MM?1dd?1yy?$AA@ 1002bfe4     LIBCMT:strftime.obj
 0002:00002ff0       ??_C@_02CJNFDJBF@PM?$AA@   1002bff0     LIBCMT:strftime.obj
 0002:00002ff4       ??_C@_02DEDBPAFC@AM?$AA@   1002bff4     LIBCMT:strftime.obj
 0002:00002ff8       ??_C@_08EDHMEBNP@December?$AA@ 1002bff8     LIBCMT:strftime.obj
 0002:00003004       ??_C@_08HCHEGEOA@November?$AA@ 1002c004     LIBCMT:strftime.obj
 0002:00003010       ??_C@_07JJNFCEND@October?$AA@ 1002c010     LIBCMT:strftime.obj
 0002:00003018       ??_C@_09BHHEALKD@September?$AA@ 1002c018     LIBCMT:strftime.obj
 0002:00003024       ??_C@_06LBBHFDDG@August?$AA@ 1002c024     LIBCMT:strftime.obj
 0002:0000302c       ??_C@_04MIEPOIFP@July?$AA@ 1002c02c     LIBCMT:strftime.obj
 0002:00003034       ??_C@_04CNLMGBGM@June?$AA@ 1002c034     LIBCMT:strftime.obj
 0002:0000303c       ??_C@_05DMJDNLEJ@April?$AA@ 1002c03c     LIBCMT:strftime.obj
 0002:00003044       ??_C@_05HPCKOFNC@March?$AA@ 1002c044     LIBCMT:strftime.obj
 0002:0000304c       ??_C@_08GNJGEPFN@February?$AA@ 1002c04c     LIBCMT:strftime.obj
 0002:00003058       ??_C@_07CGJPFGJA@January?$AA@ 1002c058     LIBCMT:strftime.obj
 0002:00003060       ??_C@_03MKABNOCG@Dec?$AA@  1002c060     LIBCMT:strftime.obj
 0002:00003064       ??_C@_03JPJOFNIA@Nov?$AA@  1002c064     LIBCMT:strftime.obj
 0002:00003068       ??_C@_03BMAOKBAD@Oct?$AA@  1002c068     LIBCMT:strftime.obj
 0002:0000306c       ??_C@_03GGCAPAJC@Sep?$AA@  1002c06c     LIBCMT:strftime.obj
 0002:00003070       ??_C@_03IFJFEIGA@Aug?$AA@  1002c070     LIBCMT:strftime.obj
 0002:00003074       ??_C@_03LBGABGKK@Jul?$AA@  1002c074     LIBCMT:strftime.obj
 0002:00003078       ??_C@_03IDFGHECI@Jun?$AA@  1002c078     LIBCMT:strftime.obj
 0002:0000307c       ??_C@_03CNMDKL@May?$AA@    1002c07c     LIBCMT:strftime.obj
 0002:00003080       ??_C@_03LEOLGMJP@Apr?$AA@  1002c080     LIBCMT:strftime.obj
 0002:00003084       ??_C@_03ODNJBKGA@Mar?$AA@  1002c084     LIBCMT:strftime.obj
 0002:00003088       ??_C@_03HJBDCHOM@Feb?$AA@  1002c088     LIBCMT:strftime.obj
 0002:0000308c       ??_C@_03JIHJHPIE@Jan?$AA@  1002c08c     LIBCMT:strftime.obj
 0002:00003090       ??_C@_08INBOOONO@Saturday?$AA@ 1002c090     LIBCMT:strftime.obj
 0002:0000309c       ??_C@_06JECMNKMI@Friday?$AA@ 1002c09c     LIBCMT:strftime.obj
 0002:000030a4       ??_C@_08HACCIKIA@Thursday?$AA@ 1002c0a4     LIBCMT:strftime.obj
 0002:000030b0       ??_C@_09DLIGFAKA@Wednesday?$AA@ 1002c0b0     LIBCMT:strftime.obj
 0002:000030bc       ??_C@_07BAAGCFCM@Tuesday?$AA@ 1002c0bc     LIBCMT:strftime.obj
 0002:000030c4       ??_C@_06JLEDEDGH@Monday?$AA@ 1002c0c4     LIBCMT:strftime.obj
 0002:000030cc       ??_C@_06OOPIFAJ@Sunday?$AA@ 1002c0cc     LIBCMT:strftime.obj
 0002:000030d4       ??_C@_03FEFJNEK@Sat?$AA@   1002c0d4     LIBCMT:strftime.obj
 0002:000030d8       ??_C@_03IDIOELNC@Fri?$AA@  1002c0d8     LIBCMT:strftime.obj
 0002:000030dc       ??_C@_03IOFIKPDN@Thu?$AA@  1002c0dc     LIBCMT:strftime.obj
 0002:000030e0       ??_C@_03MHOMLAJA@Wed?$AA@  1002c0e0     LIBCMT:strftime.obj
 0002:000030e4       ??_C@_03NAGEINEP@Tue?$AA@  1002c0e4     LIBCMT:strftime.obj
 0002:000030e8       ??_C@_03PDAGKDH@Mon?$AA@   1002c0e8     LIBCMT:strftime.obj
 0002:000030ec       ??_C@_03KOEHGMDN@Sun?$AA@  1002c0ec     LIBCMT:strftime.obj
 0002:000030f0       ??_C@_0O@FMJNFNKE@united?9states?$AA@ 1002c0f0     LIBCMT:getqloc.obj
 0002:00003100       ??_C@_0P@NDHFFKCA@united?9kingdom?$AA@ 1002c100     LIBCMT:getqloc.obj
 0002:00003110       ??_C@_0BC@HHDADLGF@trinidad?5?$CG?5tobago?$AA@ 1002c110     LIBCMT:getqloc.obj
 0002:00003124       ??_C@_0M@IOAEBDAC@south?9korea?$AA@ 1002c124     LIBCMT:getqloc.obj
 0002:00003130       ??_C@_0N@FIELFKIJ@south?9africa?$AA@ 1002c130     LIBCMT:getqloc.obj
 0002:00003140       ??_C@_0M@OPNDHCMC@south?5korea?$AA@ 1002c140     LIBCMT:getqloc.obj
 0002:0000314c       ??_C@_0N@MDEOEPFI@south?5africa?$AA@ 1002c14c     LIBCMT:getqloc.obj
 0002:0000315c       ??_C@_06FKAPCJLB@slovak?$AA@ 1002c15c     LIBCMT:getqloc.obj
 0002:00003164       ??_C@_0M@EFJANOAL@puerto?9rico?$AA@ 1002c164     LIBCMT:getqloc.obj
 0002:00003170       ??_C@_08PGOJKDAI@pr?9china?$AA@ 1002c170     LIBCMT:getqloc.obj
 0002:0000317c       ??_C@_08JHDOMCMI@pr?5china?$AA@ 1002c17c     LIBCMT:getqloc.obj
 0002:00003188       ??_C@_02JHCHFBLL@nz?$AA@   1002c188     LIBCMT:getqloc.obj
 0002:0000318c       ??_C@_0M@LINHDHKP@new?9zealand?$AA@ 1002c18c     LIBCMT:getqloc.obj
 0002:00003198       ??_C@_09IIIPPBDB@hong?9kong?$AA@ 1002c198     LIBCMT:getqloc.obj
 0002:000031a4       ??_C@_07HJLCKBG@holland?$AA@ 1002c1a4     LIBCMT:getqloc.obj
 0002:000031ac       ??_C@_0O@LEHGMHAG@great?5britain?$AA@ 1002c1ac     LIBCMT:getqloc.obj
 0002:000031bc       ??_C@_07FACOMELA@england?$AA@ 1002c1bc     LIBCMT:getqloc.obj
 0002:000031c4       ??_C@_05JIHCEICB@czech?$AA@ 1002c1c4     LIBCMT:getqloc.obj
 0002:000031cc       ??_C@_05BBJOBLGB@china?$AA@ 1002c1cc     LIBCMT:getqloc.obj
 0002:000031d4       ??_C@_07GPKPHICP@britain?$AA@ 1002c1d4     LIBCMT:getqloc.obj
 0002:000031dc       ??_C@_07MHIPBHMG@america?$AA@ 1002c1dc     LIBCMT:getqloc.obj
 0002:000031e4       ??_C@_03KIALPMKC@usa?$AA@  1002c1e4     LIBCMT:getqloc.obj
 0002:000031e8       ??_C@_02FGJGKGGD@us?$AA@   1002c1e8     LIBCMT:getqloc.obj
 0002:000031ec       ??_C@_02NEINDODK@uk?$AA@   1002c1ec     LIBCMT:getqloc.obj
 0002:000031f0       ??_C@_05JMPCFJFJ@swiss?$AA@ 1002c1f0     LIBCMT:getqloc.obj
 0002:000031f8       ??_C@_0BA@HLOCPIOD@swedish?9finland?$AA@ 1002c1f8     LIBCMT:getqloc.obj
 0002:00003208       ??_C@_0BC@PKCNIABK@spanish?9venezuela?$AA@ 1002c208     LIBCMT:getqloc.obj
 0002:0000321c       ??_C@_0BA@GBHHMIJI@spanish?9uruguay?$AA@ 1002c21c     LIBCMT:getqloc.obj
 0002:0000322c       ??_C@_0BE@BHDOHPMC@spanish?9puerto?5rico?$AA@ 1002c22c     LIBCMT:getqloc.obj
 0002:00003240       ??_C@_0N@KMOIDGGN@spanish?9peru?$AA@ 1002c240     LIBCMT:getqloc.obj
 0002:00003250       ??_C@_0BB@HMHLPGPH@spanish?9paraguay?$AA@ 1002c250     LIBCMT:getqloc.obj
 0002:00003264       ??_C@_0P@MCPKNGFD@spanish?9panama?$AA@ 1002c264     LIBCMT:getqloc.obj
 0002:00003274       ??_C@_0BC@IHOHGAIL@spanish?9nicaragua?$AA@ 1002c274     LIBCMT:getqloc.obj
 0002:00003288       ??_C@_0P@KLMJDNFJ@spanish?9modern?$AA@ 1002c288     LIBCMT:getqloc.obj
 0002:00003298       ??_C@_0BA@BPAPGBCM@spanish?9mexican?$AA@ 1002c298     LIBCMT:getqloc.obj
 0002:000032a8       ??_C@_0BB@PDECHHHE@spanish?9honduras?$AA@ 1002c2a8     LIBCMT:getqloc.obj
 0002:000032bc       ??_C@_0BC@KLHKFGDB@spanish?9guatemala?$AA@ 1002c2bc     LIBCMT:getqloc.obj
 0002:000032d0       ??_C@_0BE@MFOOKJAI@spanish?9el?5salvador?$AA@ 1002c2d0     LIBCMT:getqloc.obj
 0002:000032e4       ??_C@_0BA@FCOKFPFC@spanish?9ecuador?$AA@ 1002c2e4     LIBCMT:getqloc.obj
 0002:000032f4       ??_C@_0BL@PLMGIMOO@spanish?9dominican?5republic?$AA@ 1002c2f4     LIBCMT:getqloc.obj
 0002:00003310       ??_C@_0BD@HLGDNMHB@spanish?9costa?5rica?$AA@ 1002c310     LIBCMT:getqloc.obj
 0002:00003324       ??_C@_0BB@PKCBKCPE@spanish?9colombia?$AA@ 1002c324     LIBCMT:getqloc.obj
 0002:00003338       ??_C@_0O@MCBIJGNE@spanish?9chile?$AA@ 1002c338     LIBCMT:getqloc.obj
 0002:00003348       ??_C@_0BA@BEFEIGJJ@spanish?9bolivia?$AA@ 1002c348     LIBCMT:getqloc.obj
 0002:00003358       ??_C@_0BC@EMECMPD@spanish?9argentina?$AA@ 1002c358     LIBCMT:getqloc.obj
 0002:0000336c       ??_C@_0BF@EALFLENP@portuguese?9brazilian?$AA@ 1002c36c     LIBCMT:getqloc.obj
 0002:00003384       ??_C@_0BC@HBLEBLNN@norwegian?9nynorsk?$AA@ 1002c384     LIBCMT:getqloc.obj
 0002:00003398       ??_C@_0BB@HMACDDCK@norwegian?9bokmal?$AA@ 1002c398     LIBCMT:getqloc.obj
 0002:000033ac       ??_C@_09BAFFPPHE@norwegian?$AA@ 1002c3ac     LIBCMT:getqloc.obj
 0002:000033b8       ??_C@_0O@EAJFJDFG@italian?9swiss?$AA@ 1002c3b8     LIBCMT:getqloc.obj
 0002:000033c8       ??_C@_0O@CNOMPGD@irish?9english?$AA@ 1002c3c8     LIBCMT:getqloc.obj
 0002:000033d8       ??_C@_0N@EDHBGCKG@german?9swiss?$AA@ 1002c3d8     LIBCMT:getqloc.obj
 0002:000033e8       ??_C@_0BC@JACMHNBP@german?9luxembourg?$AA@ 1002c3e8     LIBCMT:getqloc.obj
 0002:000033fc       ??_C@_0BE@HBGMGFEG@german?9lichtenstein?$AA@ 1002c3fc     LIBCMT:getqloc.obj
 0002:00003410       ??_C@_0BA@HKKBIBKL@german?9austrian?$AA@ 1002c410     LIBCMT:getqloc.obj
 0002:00003420       ??_C@_0N@GCAEPEBK@french?9swiss?$AA@ 1002c420     LIBCMT:getqloc.obj
 0002:00003430       ??_C@_0BC@DJFJJCK@french?9luxembourg?$AA@ 1002c430     LIBCMT:getqloc.obj
 0002:00003444       ??_C@_0BA@NNCEDFIC@french?9canadian?$AA@ 1002c444     LIBCMT:getqloc.obj
 0002:00003454       ??_C@_0P@CMPOCLM@french?9belgian?$AA@ 1002c454     LIBCMT:getqloc.obj
 0002:00003464       ??_C@_0M@GHHDJOK@english?9usa?$AA@ 1002c464     LIBCMT:getqloc.obj
 0002:00003470       ??_C@_0L@PLDJKEIL@english?9us?$AA@ 1002c470     LIBCMT:getqloc.obj
 0002:0000347c       ??_C@_0L@HJCCDMNC@english?9uk?$AA@ 1002c47c     LIBCMT:getqloc.obj
 0002:00003488       ??_C@_0BK@CKLIAGJB@english?9trinidad?5y?5tobago?$AA@ 1002c488     LIBCMT:getqloc.obj
 0002:000034a4       ??_C@_0BF@JMJMGNNF@english?9south?5africa?$AA@ 1002c4a4     LIBCMT:getqloc.obj
 0002:000034bc       ??_C@_0L@DKIIFDFD@english?9nz?$AA@ 1002c4bc     LIBCMT:getqloc.obj
 0002:000034c8       ??_C@_0BA@ONHGJCLH@english?9jamaica?$AA@ 1002c4c8     LIBCMT:getqloc.obj
 0002:000034d8       ??_C@_0M@HJBGHOPO@english?9ire?$AA@ 1002c4d8     LIBCMT:getqloc.obj
 0002:000034e4       ??_C@_0BC@LFEKMIFB@english?9caribbean?$AA@ 1002c4e4     LIBCMT:getqloc.obj
 0002:000034f8       ??_C@_0M@OLDPFKHI@english?9can?$AA@ 1002c4f8     LIBCMT:getqloc.obj
 0002:00003504       ??_C@_0P@OMDEHBMP@english?9belize?$AA@ 1002c504     LIBCMT:getqloc.obj
 0002:00003514       ??_C@_0M@KFHFPFED@english?9aus?$AA@ 1002c514     LIBCMT:getqloc.obj
 0002:00003520       ??_C@_0BB@MNMBKDFE@english?9american?$AA@ 1002c520     LIBCMT:getqloc.obj
 0002:00003534       ??_C@_0O@KIDLNNBA@dutch?9belgian?$AA@ 1002c534     LIBCMT:getqloc.obj
 0002:00003544       ??_C@_0BE@JBKABBMH@chinese?9traditional?$AA@ 1002c544     LIBCMT:getqloc.obj
 0002:00003558       ??_C@_0BC@MJJMPKCG@chinese?9singapore?$AA@ 1002c558     LIBCMT:getqloc.obj
 0002:0000356c       ??_C@_0BD@FDKADDCP@chinese?9simplified?$AA@ 1002c56c     LIBCMT:getqloc.obj
 0002:00003580       ??_C@_0BB@DBEFDDME@chinese?9hongkong?$AA@ 1002c580     LIBCMT:getqloc.obj
 0002:00003594       ??_C@_07DHNMFMCI@chinese?$AA@ 1002c594     LIBCMT:getqloc.obj
 0002:0000359c       ??_C@_03FNDDCHI@chi?$AA@   1002c59c     LIBCMT:getqloc.obj
 0002:000035a0       ??_C@_03BMMIADDJ@chh?$AA@  1002c5a0     LIBCMT:getqloc.obj
 0002:000035a4       ??_C@_08OAIPJDGI@canadian?$AA@ 1002c5a4     LIBCMT:getqloc.obj
 0002:000035b0       ??_C@_07HBPMNPNJ@belgian?$AA@ 1002c5b0     LIBCMT:getqloc.obj
 0002:000035b8       ??_C@_0L@OEKOPBEL@australian?$AA@ 1002c5b8     LIBCMT:getqloc.obj
 0002:000035c4       ??_C@_0BB@MEIMBEDG@american?9english?$AA@ 1002c5c4     LIBCMT:getqloc.obj
 0002:000035d8       ??_C@_0BB@DFMDPDGB@american?5english?$AA@ 1002c5d8     LIBCMT:getqloc.obj
 0002:000035ec       ??_C@_08IJLOKOLL@american?$AA@ 1002c5ec     LIBCMT:getqloc.obj
 0002:000035f8       ___rg_language             1002c5f8     LIBCMT:getqloc.obj
 0002:00003800       ___rg_country              1002c800     LIBCMT:getqloc.obj
 0002:000038b8       ___rglangidNotDefault      1002c8b8     LIBCMT:getqloc.obj
 0002:000038cc       ??_C@_03NFKLAGEF@OCP?$AA@  1002c8cc     LIBCMT:getqloc.obj
 0002:000038d0       ??_C@_03DFHEHBHG@ACP?$AA@  1002c8d0     LIBCMT:getqloc.obj
 0002:000038d4       ??_C@_0BC@NFIEMBLL@Norwegian?9Nynorsk?$AA@ 1002c8d4     LIBCMT:getqloc.obj
 0002:000038e8       ??_C@_0BK@CFCOFLF@?5Complete?5Object?5Locator?8?$AA@ 1002c8e8     LIBCMT:undname.obj
 0002:00003904       ??_C@_0BN@MECKDCOJ@?5Class?5Hierarchy?5Descriptor?8?$AA@ 1002c904     LIBCMT:undname.obj
 0002:00003924       ??_C@_0BD@LGICGFMM@?5Base?5Class?5Array?8?$AA@ 1002c924     LIBCMT:undname.obj
 0002:00003938       ??_C@_0BM@LDKODKLH@?5Base?5Class?5Descriptor?5at?5?$CI?$AA@ 1002c938     LIBCMT:undname.obj
 0002:00003954       ??_C@_0BC@DAFEJGAK@?5Type?5Descriptor?8?$AA@ 1002c954     LIBCMT:undname.obj
 0002:00003968       ??_C@_0BM@PMGGMLDN@?$GAlocal?5static?5thread?5guard?8?$AA@ 1002c968     LIBCMT:undname.obj
 0002:00003984       ??_C@_0CL@FGIJHLCE@?$GAmanaged?5vector?5copy?5constructor@ 1002c984     LIBCMT:undname.obj
 0002:000039b0       ??_C@_0CJ@GJELGAMM@?$GAvector?5vbase?5copy?5constructor?5i@ 1002c9b0     LIBCMT:undname.obj
 0002:000039dc       ??_C@_0CD@CGAJBKEJ@?$GAvector?5copy?5constructor?5iterato@ 1002c9dc     LIBCMT:undname.obj
 0002:00003a00       ??_C@_0CB@PDBIFEP@?$GAdynamic?5atexit?5destructor?5for?5?8@ 1002ca00     LIBCMT:undname.obj
 0002:00003a24       ??_C@_0BL@CLIPGLGB@?$GAdynamic?5initializer?5for?5?8?$AA@ 1002ca24     LIBCMT:undname.obj
 0002:00003a40       ??_C@_0CM@FCBBDIGB@?$GAeh?5vector?5vbase?5copy?5constructo@ 1002ca40     LIBCMT:undname.obj
 0002:00003a6c       ??_C@_0CG@HLDDJMAG@?$GAeh?5vector?5copy?5constructor?5iter@ 1002ca6c     LIBCMT:undname.obj
 0002:00003a94       ??_C@_0CF@IMGKMJNO@?$GAmanaged?5vector?5destructor?5itera@ 1002ca94     LIBCMT:undname.obj
 0002:00003abc       ??_C@_0CG@CFDHKGGD@?$GAmanaged?5vector?5constructor?5iter@ 1002cabc     LIBCMT:undname.obj
 0002:00003ae4       ??_C@_0BN@CKNJLHMB@?$GAplacement?5delete?$FL?$FN?5closure?8?$AA@ 1002cae4     LIBCMT:undname.obj
 0002:00003b04       ??_C@_0BL@CNOONJFP@?$GAplacement?5delete?5closure?8?$AA@ 1002cb04     LIBCMT:undname.obj
 0002:00003b20       ??_C@_0P@HJKNJFNN@?$GAomni?5callsig?8?$AA@ 1002cb20     LIBCMT:undname.obj
 0002:00003b30       ??_C@_09LBNFPBCA@?5delete?$FL?$FN?$AA@ 1002cb30     LIBCMT:undname.obj
 0002:00003b3c       ??_C@_06FHBGPFGH@?5new?$FL?$FN?$AA@ 1002cb3c     LIBCMT:undname.obj
 0002:00003b44       ??_C@_0CE@IIHCMGGL@?$GAlocal?5vftable?5constructor?5closu@ 1002cb44     LIBCMT:undname.obj
 0002:00003b68       ??_C@_0BA@KKLDJDLB@?$GAlocal?5vftable?8?$AA@ 1002cb68     LIBCMT:undname.obj
 0002:00003b78       ??_C@_05KHLCHHI@?$GARTTI?$AA@ 1002cb78     LIBCMT:undname.obj
 0002:00003b80       ??_C@_03KLGMFNMG@?$GAEH?$AA@ 1002cb80     LIBCMT:undname.obj
 0002:00003b84       ??_C@_0BA@KBCDOMBN@?$GAudt?5returning?8?$AA@ 1002cb84     LIBCMT:undname.obj
 0002:00003b94       ??_C@_0BL@LLKPOHJI@?$GAcopy?5constructor?5closure?8?$AA@ 1002cb94     LIBCMT:undname.obj
 0002:00003bb0       ??_C@_0CH@OOJPLCPH@?$GAeh?5vector?5vbase?5constructor?5ite@ 1002cbb0     LIBCMT:undname.obj
 0002:00003bd8       ??_C@_0CA@GCEOPDGL@?$GAeh?5vector?5destructor?5iterator?8?$AA@ 1002cbd8     LIBCMT:undname.obj
 0002:00003bf8       ??_C@_0CB@JONCMFFK@?$GAeh?5vector?5constructor?5iterator?8@ 1002cbf8     LIBCMT:undname.obj
 0002:00003c1c       ??_C@_0BL@NILFHHPC@?$GAvirtual?5displacement?5map?8?$AA@ 1002cc1c     LIBCMT:undname.obj
 0002:00003c38       ??_C@_0CE@IKBNEHA@?$GAvector?5vbase?5constructor?5iterat@ 1002cc38     LIBCMT:undname.obj
 0002:00003c5c       ??_C@_0BN@LFPFMEDL@?$GAvector?5destructor?5iterator?8?$AA@ 1002cc5c     LIBCMT:undname.obj
 0002:00003c7c       ??_C@_0BO@PFGOCPJJ@?$GAvector?5constructor?5iterator?8?$AA@ 1002cc7c     LIBCMT:undname.obj
 0002:00003c9c       ??_C@_0BN@IMDCHIKM@?$GAscalar?5deleting?5destructor?8?$AA@ 1002cc9c     LIBCMT:undname.obj
 0002:00003cbc       ??_C@_0BO@OBMKPJIG@?$GAdefault?5constructor?5closure?8?$AA@ 1002ccbc     LIBCMT:undname.obj
 0002:00003cdc       ??_C@_0BN@DEGPLNFK@?$GAvector?5deleting?5destructor?8?$AA@ 1002ccdc     LIBCMT:undname.obj
 0002:00003cfc       ??_C@_0BD@JDLKDPAB@?$GAvbase?5destructor?8?$AA@ 1002ccfc     LIBCMT:undname.obj
 0002:00003d10       ??_C@_08OBABFOLI@?$GAstring?8?$AA@ 1002cd10     LIBCMT:undname.obj
 0002:00003d1c       ??_C@_0BF@KDPPACIK@?$GAlocal?5static?5guard?8?$AA@ 1002cd1c     LIBCMT:undname.obj
 0002:00003d34       ??_C@_08LLFFHHDJ@?$GAtypeof?8?$AA@ 1002cd34     LIBCMT:undname.obj
 0002:00003d40       ??_C@_07FEEIOKP@?$GAvcall?8?$AA@ 1002cd40     LIBCMT:undname.obj
 0002:00003d48       ??_C@_09BLBHBJP@?$GAvbtable?8?$AA@ 1002cd48     LIBCMT:undname.obj
 0002:00003d54       ??_C@_09IFPLHPGF@?$GAvftable?8?$AA@ 1002cd54     LIBCMT:undname.obj
 0002:00003d60       ??_C@_02MHEGNOJ@?$FO?$DN?$AA@ 1002cd60     LIBCMT:undname.obj
 0002:00003d64       ??_C@_02DHLNPPGH@?$HM?$DN?$AA@ 1002cd64     LIBCMT:undname.obj
 0002:00003d68       ??_C@_02FGJGFEAB@?$CG?$DN?$AA@ 1002cd68     LIBCMT:undname.obj
 0002:00003d6c       ??_C@_03CDNPDDLA@?$DM?$DM?$DN?$AA@ 1002cd6c     LIBCMT:undname.obj
 0002:00003d70       ??_C@_03IKFCCPFF@?$DO?$DO?$DN?$AA@ 1002cd70     LIBCMT:undname.obj
 0002:00003d74       ??_C@_02FENAOKFI@?$CF?$DN?$AA@ 1002cd74     LIBCMT:undname.obj
 0002:00003d78       ??_C@_02FJEHGPIO@?1?$DN?$AA@ 1002cd78     LIBCMT:undname.obj
 0002:00003d7c       ??_C@_02FKMDLLOA@?9?$DN?$AA@ 1002cd7c     LIBCMT:undname.obj
 0002:00003d80       ??_C@_02FOEOMHFC@?$CL?$DN?$AA@ 1002cd80     LIBCMT:undname.obj
 0002:00003d84       ??_C@_02FPIMKNGF@?$CK?$DN?$AA@ 1002cd84     LIBCMT:undname.obj
 0002:00003d88       ??_C@_02NONPIBCD@?$HM?$HM?$AA@ 1002cd88     LIBCMT:undname.obj
 0002:00003d8c       ??_C@_02PPKAJPJL@?$CG?$CG?$AA@ 1002cd8c     LIBCMT:undname.obj
 0002:00003d90       ??_C@_01DNKMNLPK@?$HM?$AA@ 1002cd90     LIBCMT:undname.obj
 0002:00003d94       ??_C@_01JKBOJNNK@?$FO?$AA@ 1002cd94     LIBCMT:undname.obj
 0002:00003d98       ??_C@_01PJKLJHI@?$HO?$AA@  1002cd98     LIBCMT:undname.obj
 0002:00003d9c       ??_C@_02HCKGKOFO@?$CI?$CJ?$AA@ 1002cd9c     LIBCMT:undname.obj
 0002:00003da0       ??_C@_01IHBHIGKO@?0?$AA@   1002cda0     LIBCMT:undname.obj
 0002:00003da4       ??_C@_02EEKDKGMJ@?$DO?$DN?$AA@ 1002cda4     LIBCMT:undname.obj
 0002:00003da8       ??_C@_01PPODPGHN@?$DO?$AA@ 1002cda8     LIBCMT:undname.obj
 0002:00003dac       ??_C@_02EHCHHCKH@?$DM?$DN?$AA@ 1002cdac     LIBCMT:undname.obj
 0002:00003db0       ??_C@_01MNNFJEPP@?$DM?$AA@ 1002cdb0     LIBCMT:undname.obj
 0002:00003db4       ??_C@_01FGNFDNOH@?$CF?$AA@ 1002cdb4     LIBCMT:undname.obj
 0002:00003db8       ??_C@_01KMDKNFGN@?1?$AA@   1002cdb8     LIBCMT:undname.obj
 0002:00003dbc       ??_C@_03MNHNFDLC@?9?$DO?$CK?$AA@ 1002cdbc     LIBCMT:undname.obj
 0002:00003dc0       ??_C@_01HNPIGOCE@?$CG?$AA@ 1002cdc0     LIBCMT:undname.obj
 0002:00003dc4       ??_C@_01MIFGBAGJ@?$CL?$AA@ 1002cdc4     LIBCMT:undname.obj
 0002:00003dc8       ??_C@_01JOAMLHOP@?9?$AA@   1002cdc8     LIBCMT:undname.obj
 0002:00003dcc       ??_C@_02BAABKJLB@?9?9?$AA@ 1002cdcc     LIBCMT:undname.obj
 0002:00003dd0       ??_C@_02ECNGHCIF@?$CL?$CL?$AA@ 1002cdd0     LIBCMT:undname.obj
 0002:00003dd4       ??_C@_02HBOOOICD@?9?$DO?$AA@ 1002cdd4     LIBCMT:undname.obj
 0002:00003dd8       ??_C@_08LHJFAFGD@operator?$AA@ 1002cdd8     LIBCMT:undname.obj
 0002:00003de4       ??_C@_02GPECMEKF@?$FL?$FN?$AA@ 1002cde4     LIBCMT:undname.obj
 0002:00003de8       ??_C@_02FDNJECIE@?$CB?$DN?$AA@ 1002cde8     LIBCMT:undname.obj
 0002:00003dec       ??_C@_02EGOFBIJA@?$DN?$DN?$AA@ 1002cdec     LIBCMT:undname.obj
 0002:00003df0       ??_C@_01DCLJPIOD@?$CB?$AA@ 1002cdf0     LIBCMT:undname.obj
 0002:00003df4       ??_C@_02FODMEDOG@?$DM?$DM?$AA@ 1002cdf4     LIBCMT:undname.obj
 0002:00003df8       ??_C@_02GPIOPFAK@?$DO?$DO?$AA@ 1002cdf8     LIBCMT:undname.obj
 0002:00003dfc       ??_C@_07FPCDHGMM@?5delete?$AA@ 1002cdfc     LIBCMT:undname.obj
 0002:00003e04       ??_C@_04NIHEBCM@?5new?$AA@ 1002ce04     LIBCMT:undname.obj
 0002:00003e0c       ??_C@_0M@GFIIJFMG@__unaligned?$AA@ 1002ce0c     LIBCMT:undname.obj
 0002:00003e18       ??_C@_0L@PILCLIHE@__restrict?$AA@ 1002ce18     LIBCMT:undname.obj
 0002:00003e24       ??_C@_07JOMMBBKO@__ptr64?$AA@ 1002ce24     LIBCMT:undname.obj
 0002:00003e2c       ??_C@_09HIJEGCPM@__clrcall?$AA@ 1002ce2c     LIBCMT:undname.obj
 0002:00003e38       ??_C@_0L@JMKHOMEK@__fastcall?$AA@ 1002ce38     LIBCMT:undname.obj
 0002:00003e44       ??_C@_0L@NPHFGOKO@__thiscall?$AA@ 1002ce44     LIBCMT:undname.obj
 0002:00003e50       ??_C@_09IFJBGAPI@__stdcall?$AA@ 1002ce50     LIBCMT:undname.obj
 0002:00003e5c       ??_C@_08GHMPAG@__pascal?$AA@ 1002ce5c     LIBCMT:undname.obj
 0002:00003e68       ??_C@_07KOLFKCDI@__cdecl?$AA@ 1002ce68     LIBCMT:undname.obj
 0002:00003e70       ??_C@_08EHJDFFNH@__based?$CI?$AA@ 1002ce70     LIBCMT:undname.obj
 0002:00004000       ??_C@_0BI@DFKBFLJE@GetProcessWindowStation?$AA@ 1002d000     LIBCMT:crtmbox.obj
 0002:00004018       ??_C@_0BK@CIDNPOGP@GetUserObjectInformationA?$AA@ 1002d018     LIBCMT:crtmbox.obj
 0002:00004034       ??_C@_0BD@HHGDFDBJ@GetLastActivePopup?$AA@ 1002d034     LIBCMT:crtmbox.obj
 0002:00004048       ??_C@_0BA@HNOPNCHB@GetActiveWindow?$AA@ 1002d048     LIBCMT:crtmbox.obj
 0002:00004058       ??_C@_0M@CHKKJDAI@MessageBoxA?$AA@ 1002d058     LIBCMT:crtmbox.obj
 0002:00004064       ??_C@_0L@NDEGIDAG@USER32?4DLL?$AA@ 1002d064     LIBCMT:crtmbox.obj
 0002:00004070       ??_C@_0CG@PKBDLMEO@InitializeCriticalSectionAndSpin@ 1002d070     LIBCMT:initcrit.obj
 0002:00004098       ??_C@_0N@MDJJJHMB@kernel32?4dll?$AA@ 1002d098     LIBCMT:initcrit.obj
 0002:000040a8       ??_C@_06IMKFLFPG@1?$CDQNAN?$AA@ 1002d0a8     LIBCMT:x10fout.obj
 0002:000040b0       ??_C@_05DNEBIAHO@1?$CDINF?$AA@ 1002d0b0     LIBCMT:x10fout.obj
 0002:000040b8       ??_C@_05PHHOCPM@1?$CDIND?$AA@ 1002d0b8     LIBCMT:x10fout.obj
 0002:000040c0       ??_C@_06PGGFOGJG@1?$CDSNAN?$AA@ 1002d0c0     LIBCMT:x10fout.obj
 0002:000040c8       ??_C@_0L@KDOEJCKC@_nextafter?$AA@ 1002d0c8     LIBCMT:fpexcept.obj
 0002:000040d4       ??_C@_05JGDBENOH@_logb?$AA@ 1002d0d4     LIBCMT:fpexcept.obj
 0002:000040dc       ??_C@_03ONILCKOB@_yn?$AA@  1002d0dc     LIBCMT:fpexcept.obj
 0002:000040e0       ??_C@_03NAKIGLHK@_y1?$AA@  1002d0e0     LIBCMT:fpexcept.obj
 0002:000040e4       ??_C@_03MJLDFKDL@_y0?$AA@  1002d0e4     LIBCMT:fpexcept.obj
 0002:000040e8       ??_C@_05GKKHEGJL@frexp?$AA@ 1002d0e8     LIBCMT:fpexcept.obj
 0002:000040f0       ??_C@_04KEPJIHGP@fmod?$AA@ 1002d0f0     LIBCMT:fpexcept.obj
 0002:000040f8       ??_C@_06MEIMCGCF@_hypot?$AA@ 1002d0f8     LIBCMT:fpexcept.obj
 0002:00004100       ??_C@_05KBKMEMPO@_cabs?$AA@ 1002d100     LIBCMT:fpexcept.obj
 0002:00004108       ??_C@_05CEJMAHNP@ldexp?$AA@ 1002d108     LIBCMT:fpexcept.obj
 0002:00004110       ??_C@_04EHEDPDJG@modf?$AA@ 1002d110     LIBCMT:fpexcept.obj
 0002:00004118       ??_C@_04ODHECPBC@fabs?$AA@ 1002d118     LIBCMT:fpexcept.obj
 0002:00004120       ??_C@_05PBJFFIGL@floor?$AA@ 1002d120     LIBCMT:fpexcept.obj
 0002:00004128       ??_C@_04GFPJNGEK@ceil?$AA@ 1002d128     LIBCMT:fpexcept.obj
 0002:00004130       ??_C@_03IIINPABG@tan?$AA@  1002d130     LIBCMT:fpexcept.obj
 0002:00004134       ??_C@_03LALBNOCG@cos?$AA@  1002d134     LIBCMT:fpexcept.obj
 0002:00004138       ??_C@_03BLEJJJBH@sin?$AA@  1002d138     LIBCMT:fpexcept.obj
 0002:0000413c       ??_C@_04EIAKFFMI@sqrt?$AA@ 1002d13c     LIBCMT:fpexcept.obj
 0002:00004144       ??_C@_05KNGEOGJB@atan2?$AA@ 1002d144     LIBCMT:fpexcept.obj
 0002:0000414c       ??_C@_04MLLJIGOK@atan?$AA@ 1002d14c     LIBCMT:fpexcept.obj
 0002:00004154       ??_C@_04PDIFKINK@acos?$AA@ 1002d154     LIBCMT:fpexcept.obj
 0002:0000415c       ??_C@_04FIHNOPOL@asin?$AA@ 1002d15c     LIBCMT:fpexcept.obj
 0002:00004164       ??_C@_04FJHINJAO@tanh?$AA@ 1002d164     LIBCMT:fpexcept.obj
 0002:0000416c       ??_C@_04HPJJNFIM@cosh?$AA@ 1002d16c     LIBCMT:fpexcept.obj
 0002:00004174       ??_C@_04COOMCNPB@sinh?$AA@ 1002d174     LIBCMT:fpexcept.obj
 0002:0000417c       ??_C@_05HGHHAHAP@log10?$AA@ 1002d17c     LIBCMT:fpexcept.obj
 0002:00004184       ??_C@_03MGHMBJCF@log?$AA@  1002d184     LIBCMT:fpexcept.obj
 0002:00004188       ??_C@_03JGHBODFD@pow?$AA@  1002d188     LIBCMT:fpexcept.obj
 0002:0000418c       ??_C@_03KHJOGHMM@exp?$AA@  1002d18c     LIBCMT:fpexcept.obj
 0002:00004190       ??_C@_07GPDNMNG@CONOUT$?$AA@ 1002d190     LIBCMT:initcon.obj
 0002:00004198       __load_config_used         1002d198     LIBCMT:loadcfg.obj
 0002:000041e0       ??_R4bad_alloc@std@@6B@    1002d1e0     ClientSocket.obj
 0002:000041f4       ??_R3bad_alloc@std@@8      1002d1f4     ClientSocket.obj
 0002:00004204       ??_R2bad_alloc@std@@8      1002d204     ClientSocket.obj
 0002:00004210       ??_R1A@?0A@EA@bad_alloc@std@@8 1002d210     ClientSocket.obj
 0002:0000422c       ??_R1A@?0A@EA@exception@std@@8 1002d22c     ClientSocket.obj
 0002:00004248       ??_R3exception@std@@8      1002d248     ClientSocket.obj
 0002:00004258       ??_R2exception@std@@8      1002d258     ClientSocket.obj
 0002:00004260       ??_R3IClientSocket@net@@8  1002d260     ClientSocket.obj
 0002:00004270       ??_R2IClientSocket@net@@8  1002d270     ClientSocket.obj
 0002:00004278       ??_R1A@?0A@EA@IClientSocket@net@@8 1002d278     ClientSocket.obj
 0002:00004294       ??_R4CClientSocket@net@@6B@ 1002d294     ClientSocket.obj
 0002:000042a8       ??_R3CClientSocket@net@@8  1002d2a8     ClientSocket.obj
 0002:000042b8       ??_R2CClientSocket@net@@8  1002d2b8     ClientSocket.obj
 0002:000042c4       ??_R1A@?0A@EA@CClientSocket@net@@8 1002d2c4     ClientSocket.obj
 0002:000042e0       ??_R3IKernel@serve@@8      1002d2e0     KernelImpl.obj
 0002:000042f0       ??_R2IKernel@serve@@8      1002d2f0     KernelImpl.obj
 0002:000042f8       ??_R1A@?0A@EA@IKernel@serve@@8 1002d2f8     KernelImpl.obj
 0002:00004314       ??_R4logic_error@std@@6B@  1002d314     KernelImpl.obj
 0002:00004328       ??_R3logic_error@std@@8    1002d328     KernelImpl.obj
 0002:00004338       ??_R2logic_error@std@@8    1002d338     KernelImpl.obj
 0002:00004344       ??_R1A@?0A@EA@logic_error@std@@8 1002d344     KernelImpl.obj
 0002:00004360       ??_R4length_error@std@@6B@ 1002d360     KernelImpl.obj
 0002:00004374       ??_R3length_error@std@@8   1002d374     KernelImpl.obj
 0002:00004384       ??_R2length_error@std@@8   1002d384     KernelImpl.obj
 0002:00004394       ??_R1A@?0A@EA@length_error@std@@8 1002d394     KernelImpl.obj
 0002:000043b0       ??_R4out_of_range@std@@6B@ 1002d3b0     KernelImpl.obj
 0002:000043c4       ??_R3out_of_range@std@@8   1002d3c4     KernelImpl.obj
 0002:000043d4       ??_R2out_of_range@std@@8   1002d3d4     KernelImpl.obj
 0002:000043e4       ??_R1A@?0A@EA@out_of_range@std@@8 1002d3e4     KernelImpl.obj
 0002:00004400       ??_R4CKernelImpl@serve@@6B@ 1002d400     KernelImpl.obj
 0002:00004414       ??_R3CKernelImpl@serve@@8  1002d414     KernelImpl.obj
 0002:00004424       ??_R2CKernelImpl@serve@@8  1002d424     KernelImpl.obj
 0002:00004430       ??_R1A@?0A@EA@CKernelImpl@serve@@8 1002d430     KernelImpl.obj
 0002:0000444c       ??_R4runtime_error@std@@6B@ 1002d44c     ListenSocket.obj
 0002:00004460       ??_R3runtime_error@std@@8  1002d460     ListenSocket.obj
 0002:00004470       ??_R2runtime_error@std@@8  1002d470     ListenSocket.obj
 0002:0000447c       ??_R1A@?0A@EA@runtime_error@std@@8 1002d47c     ListenSocket.obj
 0002:00004498       ??_R4failure@ios_base@std@@6B@ 1002d498     ListenSocket.obj
 0002:000044ac       ??_R3failure@ios_base@std@@8 1002d4ac     ListenSocket.obj
 0002:000044bc       ??_R2failure@ios_base@std@@8 1002d4bc     ListenSocket.obj
 0002:000044cc       ??_R1A@?0A@EA@failure@ios_base@std@@8 1002d4cc     ListenSocket.obj
 0002:000044e8       ??_R4CCriticalSection@sbase@@6B@ 1002d4e8     MsgRouter.obj
 0002:000044fc       ??_R3CCriticalSection@sbase@@8 1002d4fc     MsgRouter.obj
 0002:0000450c       ??_R2CCriticalSection@sbase@@8 1002d50c     MsgRouter.obj
 0002:00004518       ??_R1A@?0A@EA@CCriticalSection@sbase@@8 1002d518     MsgRouter.obj
 0002:00004534       ??_R1A@?0A@EA@ILockObj@sbase@@8 1002d534     MsgRouter.obj
 0002:00004550       ??_R3ILockObj@sbase@@8     1002d550     MsgRouter.obj
 0002:00004560       ??_R2ILockObj@sbase@@8     1002d560     MsgRouter.obj
 0002:00004568       ??_R3IPort@serve@@8        1002d568     MsgRouter.obj
 0002:00004578       ??_R2IPort@serve@@8        1002d578     MsgRouter.obj
 0002:00004580       ??_R1A@?0A@EA@IPort@serve@@8 1002d580     MsgRouter.obj
 0002:0000459c       ??_R3IRouter@serve@@8      1002d59c     MsgRouter.obj
 0002:000045ac       ??_R2IRouter@serve@@8      1002d5ac     MsgRouter.obj
 0002:000045b4       ??_R1A@?0A@EA@IRouter@serve@@8 1002d5b4     MsgRouter.obj
 0002:000045d0       ??_R4CRouterPort@serve@@6B@ 1002d5d0     MsgRouter.obj
 0002:000045e4       ??_R3CRouterPort@serve@@8  1002d5e4     MsgRouter.obj
 0002:000045f4       ??_R2CRouterPort@serve@@8  1002d5f4     MsgRouter.obj
 0002:00004600       ??_R1A@?0A@EA@CRouterPort@serve@@8 1002d600     MsgRouter.obj
 0002:0000461c       ??_R4CMsgRouter@serve@@6B@ 1002d61c     MsgRouter.obj
 0002:00004630       ??_R3CMsgRouter@serve@@8   1002d630     MsgRouter.obj
 0002:00004640       ??_R2CMsgRouter@serve@@8   1002d640     MsgRouter.obj
 0002:0000464c       ??_R1A@?0A@EA@CMsgRouter@serve@@8 1002d64c     MsgRouter.obj
 0002:00004668       ??_R4CMsg@sbase@@6B@       1002d668     NetClient.obj
 0002:0000467c       ??_R3CMsg@sbase@@8         1002d67c     NetClient.obj
 0002:0000468c       ??_R2CMsg@sbase@@8         1002d68c     NetClient.obj
 0002:00004694       ??_R1A@?0A@EA@CMsg@sbase@@8 1002d694     NetClient.obj
 0002:000046b0       ??_R3INetClient@@8         1002d6b0     NetClient.obj
 0002:000046c0       ??_R2INetClient@@8         1002d6c0     NetClient.obj
 0002:000046c8       ??_R1A@?0A@EA@INetClient@@8 1002d6c8     NetClient.obj
 0002:000046e4       ??_R4IClientSocketEvent@net@@6B@ 1002d6e4     NetClient.obj
 0002:000046f8       ??_R3IClientSocketEvent@net@@8 1002d6f8     NetClient.obj
 0002:00004708       ??_R2IClientSocketEvent@net@@8 1002d708     NetClient.obj
 0002:00004710       ??_R1A@?0A@EA@IClientSocketEvent@net@@8 1002d710     NetClient.obj
 0002:0000472c       ??_R3IEncryptor@net@@8     1002d72c     NetClient.obj
 0002:0000473c       ??_R2IEncryptor@net@@8     1002d73c     NetClient.obj
 0002:00004744       ??_R1A@?0A@EA@IEncryptor@net@@8 1002d744     NetClient.obj
 0002:00004760       ??_R4?$TEncryptClient@$0CA@$0PN@$06$0BP@$0HK@$0MP@$0OF@$0DP@@net@@6B@ 1002d760     NetClient.obj
 0002:00004774       ??_R3?$TEncryptClient@$0CA@$0PN@$06$0BP@$0HK@$0MP@$0OF@$0DP@@net@@8 1002d774     NetClient.obj
 0002:00004784       ??_R2?$TEncryptClient@$0CA@$0PN@$06$0BP@$0HK@$0MP@$0OF@$0DP@@net@@8 1002d784     NetClient.obj
 0002:00004790       ??_R1A@?0A@EA@?$TEncryptClient@$0CA@$0PN@$06$0BP@$0HK@$0MP@$0OF@$0DP@@net@@8 1002d790     NetClient.obj
 0002:000047ac       ??_R4CNetClient@@6BINetClient@@@ 1002d7ac     NetClient.obj
 0002:000047c0       ??_R3CNetClient@@8         1002d7c0     NetClient.obj
 0002:000047d0       ??_R2CNetClient@@8         1002d7d0     NetClient.obj
 0002:000047e0       ??_R1A@?0A@EA@CNetClient@@8 1002d7e0     NetClient.obj
 0002:000047fc       ??_R13?0A@EN@IClientSocketEvent@net@@8 1002d7fc     NetClient.obj
 0002:00004818       ??_R4CNetClient@@6BIClientSocketEvent@net@@@ 1002d818     NetClient.obj
 0002:0000482c       ??_R4IServeSocketEvent@net@@6B@ 1002d82c     NetServeImpl.obj
 0002:00004840       ??_R3IServeSocketEvent@net@@8 1002d840     NetServeImpl.obj
 0002:00004850       ??_R2IServeSocketEvent@net@@8 1002d850     NetServeImpl.obj
 0002:00004858       ??_R1A@?0A@EA@IServeSocketEvent@net@@8 1002d858     NetServeImpl.obj
 0002:00004874       ??_R3IModule@sbase@@8      1002d874     NetServeImpl.obj
 0002:00004884       ??_R2IModule@sbase@@8      1002d884     NetServeImpl.obj
 0002:0000488c       ??_R1A@?0A@EA@IModule@sbase@@8 1002d88c     NetServeImpl.obj
 0002:000048a8       ??_R3IServe@serve@@8       1002d8a8     NetServeImpl.obj
 0002:000048b8       ??_R2IServe@serve@@8       1002d8b8     NetServeImpl.obj
 0002:000048c4       ??_R1A@?0A@EA@IServe@serve@@8 1002d8c4     NetServeImpl.obj
 0002:000048e0       ??_R4?$TEncryptServer@$0LCJNDMIE@$0MMGCEKNK@@net@@6B@ 1002d8e0     NetServeImpl.obj
 0002:000048f4       ??_R3?$TEncryptServer@$0LCJNDMIE@$0MMGCEKNK@@net@@8 1002d8f4     NetServeImpl.obj
 0002:00004904       ??_R2?$TEncryptServer@$0LCJNDMIE@$0MMGCEKNK@@net@@8 1002d904     NetServeImpl.obj
 0002:00004910       ??_R1A@?0A@EA@?$TEncryptServer@$0LCJNDMIE@$0MMGCEKNK@@net@@8 1002d910     NetServeImpl.obj
 0002:0000492c       ??_R4CNetworkServeImpl@ns@@6BIServe@serve@@@ 1002d92c     NetServeImpl.obj
 0002:00004940       ??_R3CNetworkServeImpl@ns@@8 1002d940     NetServeImpl.obj
 0002:00004950       ??_R2CNetworkServeImpl@ns@@8 1002d950     NetServeImpl.obj
 0002:00004964       ??_R1A@?0A@EA@CNetworkServeImpl@ns@@8 1002d964     NetServeImpl.obj
 0002:00004980       ??_R13?0A@EN@IServeSocketEvent@net@@8 1002d980     NetServeImpl.obj
 0002:0000499c       ??_R4CNetworkServeImpl@ns@@6BIServeSocketEvent@net@@@ 1002d99c     NetServeImpl.obj
 0002:000049b0       ??_R3IThreadEvent@sbase@@8 1002d9b0     Serve.obj
 0002:000049c0       ??_R2IThreadEvent@sbase@@8 1002d9c0     Serve.obj
 0002:000049c8       ??_R1A@?0A@EA@IThreadEvent@sbase@@8 1002d9c8     Serve.obj
 0002:000049e4       ??_R4CServe@serve@@6B@     1002d9e4     Serve.obj
 0002:000049f8       ??_R3CServe@serve@@8       1002d9f8     Serve.obj
 0002:00004a08       ??_R2CServe@serve@@8       1002da08     Serve.obj
 0002:00004a14       ??_R1A@?0A@EA@CServe@serve@@8 1002da14     Serve.obj
 0002:00004a30       ??_R1A@?0A@EN@IThreadEvent@sbase@@8 1002da30     Serve.obj
 0002:00004a4c       ??_R4facet@locale@std@@6B@ 1002da4c     ServeSocket.obj
 0002:00004a60       ??_R3facet@locale@std@@8   1002da60     ServeSocket.obj
 0002:00004a70       ??_R2facet@locale@std@@8   1002da70     ServeSocket.obj
 0002:00004a78       ??_R1A@?0A@EA@facet@locale@std@@8 1002da78     ServeSocket.obj
 0002:00004a94       ??_R3IServeSocket@net@@8   1002da94     ServeSocket.obj
 0002:00004aa4       ??_R2IServeSocket@net@@8   1002daa4     ServeSocket.obj
 0002:00004aac       ??_R1A@?0A@EA@IServeSocket@net@@8 1002daac     ServeSocket.obj
 0002:00004ac8       ??_R4CListenSocket@net@@6B@ 1002dac8     ServeSocket.obj
 0002:00004adc       ??_R3CListenSocket@net@@8  1002dadc     ServeSocket.obj
 0002:00004aec       ??_R2CListenSocket@net@@8  1002daec     ServeSocket.obj
 0002:00004af4       ??_R1A@?0A@EA@CListenSocket@net@@8 1002daf4     ServeSocket.obj
 0002:00004b10       ??_R4?$num_put@DV?$ostreambuf_iterator@DU?$char_traits@D@std@@@std@@@std@@6B@ 1002db10     ServeSocket.obj
 0002:00004b24       ??_R3?$num_put@DV?$ostreambuf_iterator@DU?$char_traits@D@std@@@std@@@std@@8 1002db24     ServeSocket.obj
 0002:00004b34       ??_R2?$num_put@DV?$ostreambuf_iterator@DU?$char_traits@D@std@@@std@@@std@@8 1002db34     ServeSocket.obj
 0002:00004b40       ??_R1A@?0A@EA@?$num_put@DV?$ostreambuf_iterator@DU?$char_traits@D@std@@@std@@@std@@8 1002db40     ServeSocket.obj
 0002:00004b5c       ??_R4?$numpunct@D@std@@6B@ 1002db5c     ServeSocket.obj
 0002:00004b70       ??_R3?$numpunct@D@std@@8   1002db70     ServeSocket.obj
 0002:00004b80       ??_R2?$numpunct@D@std@@8   1002db80     ServeSocket.obj
 0002:00004b8c       ??_R1A@?0A@EA@?$numpunct@D@std@@8 1002db8c     ServeSocket.obj
 0002:00004ba8       ??_R4CServeSocket@net@@6B@ 1002dba8     ServeSocket.obj
 0002:00004bbc       ??_R3CServeSocket@net@@8   1002dbbc     ServeSocket.obj
 0002:00004bcc       ??_R2CServeSocket@net@@8   1002dbcc     ServeSocket.obj
 0002:00004bd8       ??_R1A@?0A@EA@CServeSocket@net@@8 1002dbd8     ServeSocket.obj
 0002:00004bf4       ??_R4CSocket@net@@6B@      1002dbf4     Socket.obj
 0002:00004c08       ??_R3CSocket@net@@8        1002dc08     Socket.obj
 0002:00004c18       ??_R2CSocket@net@@8        1002dc18     Socket.obj
 0002:00004c20       ??_R1A@?0A@EA@CSocket@net@@8 1002dc20     Socket.obj
 0002:00004c3c       ??_R4CThread@sbase@@6B@    1002dc3c     base:Thread.obj
 0002:00004c50       ??_R3CThread@sbase@@8      1002dc50     base:Thread.obj
 0002:00004c60       ??_R2CThread@sbase@@8      1002dc60     base:Thread.obj
 0002:00004c68       ??_R1A@?0A@EA@CThread@sbase@@8 1002dc68     base:Thread.obj
 0002:00004c84       ??_R3ctype_base@std@@8     1002dc84     libcpmt:cout.obj
 0002:00004c94       ??_R2ctype_base@std@@8     1002dc94     libcpmt:cout.obj
 0002:00004ca0       ??_R1A@?0A@EA@ctype_base@std@@8 1002dca0     libcpmt:cout.obj
 0002:00004cbc       ??_R4ios_base@std@@6B@     1002dcbc     libcpmt:cout.obj
 0002:00004cd0       ??_R3ios_base@std@@8       1002dcd0     libcpmt:cout.obj
 0002:00004ce0       ??_R2ios_base@std@@8       1002dce0     libcpmt:cout.obj
 0002:00004cec       ??_R1A@?0A@EA@ios_base@std@@8 1002dcec     libcpmt:cout.obj
 0002:00004d08       ??_R13?0A@EA@?$_Iosb@H@std@@8 1002dd08     libcpmt:cout.obj
 0002:00004d24       ??_R3?$_Iosb@H@std@@8      1002dd24     libcpmt:cout.obj
 0002:00004d34       ??_R2?$_Iosb@H@std@@8      1002dd34     libcpmt:cout.obj
 0002:00004d3c       ??_R1A@?0A@EA@?$_Iosb@H@std@@8 1002dd3c     libcpmt:cout.obj
 0002:00004d58       ??_R4?$basic_ostream@DU?$char_traits@D@std@@@std@@6B@ 1002dd58     libcpmt:cout.obj
 0002:00004d6c       ??_R3?$basic_ostream@DU?$char_traits@D@std@@@std@@8 1002dd6c     libcpmt:cout.obj
 0002:00004d7c       ??_R2?$basic_ostream@DU?$char_traits@D@std@@@std@@8 1002dd7c     libcpmt:cout.obj
 0002:00004d90       ??_R1A@?0A@EA@?$basic_ostream@DU?$char_traits@D@std@@@std@@8 1002dd90     libcpmt:cout.obj
 0002:00004dac       ??_R1A@A@3FA@?$basic_ios@DU?$char_traits@D@std@@@std@@8 1002ddac     libcpmt:cout.obj
 0002:00004dc8       ??_R3?$basic_ios@DU?$char_traits@D@std@@@std@@8 1002ddc8     libcpmt:cout.obj
 0002:00004dd8       ??_R2?$basic_ios@DU?$char_traits@D@std@@@std@@8 1002ddd8     libcpmt:cout.obj
 0002:00004de8       ??_R1A@?0A@EA@?$basic_ios@DU?$char_traits@D@std@@@std@@8 1002dde8     libcpmt:cout.obj
 0002:00004e04       ??_R1A@A@3EA@ios_base@std@@8 1002de04     libcpmt:cout.obj
 0002:00004e20       ??_R13A@3EA@?$_Iosb@H@std@@8 1002de20     libcpmt:cout.obj
 0002:00004e3c       ??_R4?$basic_ios@DU?$char_traits@D@std@@@std@@6B@ 1002de3c     libcpmt:cout.obj
 0002:00004e50       ??_R4?$basic_streambuf@DU?$char_traits@D@std@@@std@@6B@ 1002de50     libcpmt:cout.obj
 0002:00004e64       ??_R3?$basic_streambuf@DU?$char_traits@D@std@@@std@@8 1002de64     libcpmt:cout.obj
 0002:00004e74       ??_R2?$basic_streambuf@DU?$char_traits@D@std@@@std@@8 1002de74     libcpmt:cout.obj
 0002:00004e7c       ??_R1A@?0A@EA@?$basic_streambuf@DU?$char_traits@D@std@@@std@@8 1002de7c     libcpmt:cout.obj
 0002:00004e98       ??_R4?$basic_filebuf@DU?$char_traits@D@std@@@std@@6B@ 1002de98     libcpmt:cout.obj
 0002:00004eac       ??_R3?$basic_filebuf@DU?$char_traits@D@std@@@std@@8 1002deac     libcpmt:cout.obj
 0002:00004ebc       ??_R2?$basic_filebuf@DU?$char_traits@D@std@@@std@@8 1002debc     libcpmt:cout.obj
 0002:00004ec8       ??_R1A@?0A@EA@?$basic_filebuf@DU?$char_traits@D@std@@@std@@8 1002dec8     libcpmt:cout.obj
 0002:00004ee4       ??_R3codecvt_base@std@@8   1002dee4     libcpmt:cout.obj
 0002:00004ef4       ??_R2codecvt_base@std@@8   1002def4     libcpmt:cout.obj
 0002:00004f00       ??_R1A@?0A@EA@codecvt_base@std@@8 1002df00     libcpmt:cout.obj
 0002:00004f1c       ??_R4?$ctype@D@std@@6B@    1002df1c     libcpmt:cout.obj
 0002:00004f30       ??_R3?$ctype@D@std@@8      1002df30     libcpmt:cout.obj
 0002:00004f40       ??_R2?$ctype@D@std@@8      1002df40     libcpmt:cout.obj
 0002:00004f50       ??_R1A@?0A@EA@?$ctype@D@std@@8 1002df50     libcpmt:cout.obj
 0002:00004f6c       ??_R4?$codecvt@DDH@std@@6B@ 1002df6c     libcpmt:cout.obj
 0002:00004f80       ??_R3?$codecvt@DDH@std@@8  1002df80     libcpmt:cout.obj
 0002:00004f90       ??_R2?$codecvt@DDH@std@@8  1002df90     libcpmt:cout.obj
 0002:00004fa0       ??_R1A@?0A@EA@?$codecvt@DDH@std@@8 1002dfa0     libcpmt:cout.obj
 0002:00004fbc       ??_R4_Locimp@locale@std@@6B@ 1002dfbc     libcpmt:locale0.obj
 0002:00004fd0       ??_R3_Locimp@locale@std@@8 1002dfd0     libcpmt:locale0.obj
 0002:00004fe0       ??_R2_Locimp@locale@std@@8 1002dfe0     libcpmt:locale0.obj
 0002:00004fec       ??_R1A@?0A@EA@_Locimp@locale@std@@8 1002dfec     libcpmt:locale0.obj
 0002:00005008       ??_R4exception@std@@6B@    1002e008     LIBCMT:stdexcpt.obj
 0002:0000501c       ??_R4bad_cast@std@@6B@     1002e01c     LIBCMT:stdexcpt.obj
 0002:00005030       ??_R3bad_cast@std@@8       1002e030     LIBCMT:stdexcpt.obj
 0002:00005040       ??_R2bad_cast@std@@8       1002e040     LIBCMT:stdexcpt.obj
 0002:0000504c       ??_R1A@?0A@EA@bad_cast@std@@8 1002e04c     LIBCMT:stdexcpt.obj
 0002:00005068       ??_R4type_info@@6B@        1002e068     LIBCMT:typinfo.obj
 0002:0000507c       ??_R3type_info@@8          1002e07c     LIBCMT:typinfo.obj
 0002:0000508c       ??_R2type_info@@8          1002e08c     LIBCMT:typinfo.obj
 0002:00005094       ??_R1A@?0A@EA@type_info@@8 1002e094     LIBCMT:typinfo.obj
 0002:000050b0       ??_R4bad_exception@std@@6B@ 1002e0b0     LIBCMT:frame.obj
 0002:000050c4       ??_R3bad_exception@std@@8  1002e0c4     LIBCMT:frame.obj
 0002:000050d4       ??_R2bad_exception@std@@8  1002e0d4     LIBCMT:frame.obj
 0002:000050e0       ??_R1A@?0A@EA@bad_exception@std@@8 1002e0e0     LIBCMT:frame.obj
 0002:00005100       ___safe_se_handler_table   1002e100     <linker-defined>
 0002:00005278       ___rtc_iaa                 1002e278     LIBCMT:initsect.obj
 0002:0000527c       ___rtc_izz                 1002e27c     LIBCMT:initsect.obj
 0002:00005280       ___rtc_taa                 1002e280     LIBCMT:initsect.obj
 0002:00005284       ___rtc_tzz                 1002e284     LIBCMT:initsect.obj
 0002:000053d4       __TI2?AVbad_alloc@std@@    1002e3d4     ClientSocket.obj
 0002:000053e4       __CTA2?AVbad_alloc@std@@   1002e3e4     ClientSocket.obj
 0002:000053f0       __CT??_R0?AVbad_alloc@std@@@8??0bad_alloc@std@@QAE@ABV01@@Z12 1002e3f0     ClientSocket.obj
 0002:0000540c       __CT??_R0?AVexception@std@@@8??0exception@std@@QAE@ABV01@@Z12 1002e40c     ClientSocket.obj
 0002:00005668       __TI3?AVout_of_range@std@@ 1002e668     KernelImpl.obj
 0002:00005678       __CTA3?AVout_of_range@std@@ 1002e678     KernelImpl.obj
 0002:00005688       __CT??_R0?AVout_of_range@std@@@8??0out_of_range@std@@QAE@ABV01@@Z40 1002e688     KernelImpl.obj
 0002:000056a4       __CT??_R0?AVlogic_error@std@@@8??0logic_error@std@@QAE@ABV01@@Z40 1002e6a4     KernelImpl.obj
 0002:000056c0       __TI3?AVlength_error@std@@ 1002e6c0     KernelImpl.obj
 0002:000056d0       __CTA3?AVlength_error@std@@ 1002e6d0     KernelImpl.obj
 0002:000056e0       __CT??_R0?AVlength_error@std@@@8??0length_error@std@@QAE@ABV01@@Z40 1002e6e0     KernelImpl.obj
 0002:000059d0       __TI3?AVfailure@ios_base@std@@ 1002e9d0     ListenSocket.obj
 0002:00005a1c       __CTA3?AVfailure@ios_base@std@@ 1002ea1c     ListenSocket.obj
 0002:00005a2c       __CT??_R0?AVfailure@ios_base@std@@@8??0failure@ios_base@std@@QAE@ABV012@@Z40 1002ea2c     ListenSocket.obj
 0002:00005a48       __CT??_R0?AVruntime_error@std@@@8??0runtime_error@std@@QAE@ABV01@@Z40 1002ea48     ListenSocket.obj
 0002:00006388       __TI2?AVruntime_error@std@@ 1002f388     ServeSocket.obj
 0002:000063ec       __CTA2?AVruntime_error@std@@ 1002f3ec     ServeSocket.obj
 0002:000065ac       __TI2?AVbad_cast@std@@     1002f5ac     ServeSocket.obj
 0002:000065bc       __CTA2?AVbad_cast@std@@    1002f5bc     ServeSocket.obj
 0002:000065c8       __CT??_R0?AVbad_cast@std@@@8??0bad_cast@std@@QAE@ABV01@@Z12 1002f5c8     ServeSocket.obj
 0002:00006f9c       __TI2?AVbad_exception@std@@ 1002ff9c     LIBCMT:frame.obj
 0002:00006fac       __CTA2?AVbad_exception@std@@ 1002ffac     LIBCMT:frame.obj
 0002:00006fb8       __CT??_R0?AVbad_exception@std@@@8??0bad_exception@std@@QAE@ABV01@@Z12 1002ffb8     LIBCMT:frame.obj
 0002:000075e4       __IMPORT_DESCRIPTOR_KERNEL32 100305e4     kernel32:KERNEL32.dll
 0002:000075f8       __IMPORT_DESCRIPTOR_USER32 100305f8     user32:USER32.dll
 0002:0000760c       __IMPORT_DESCRIPTOR_WS2_32 1003060c     WS2_32:WS2_32.dll
 0002:00007620       __NULL_IMPORT_DESCRIPTOR   10030620     kernel32:KERNEL32.dll
 0003:00000008       ??_R0?AVbad_alloc@std@@@8  10031008     ClientSocket.obj
 0003:00000024       ??_R0?AVexception@std@@@8  10031024     ClientSocket.obj
 0003:00000040       ??_R0?AVIClientSocket@net@@@8 10031040     ClientSocket.obj
 0003:00000060       ??_R0?AVCClientSocket@net@@@8 10031060     ClientSocket.obj
 0003:00000088       ??_R0?AVIKernel@serve@@@8  10031088     KernelImpl.obj
 0003:000000a4       ??_R0?AVlogic_error@std@@@8 100310a4     KernelImpl.obj
 0003:000000c4       ??_R0?AVlength_error@std@@@8 100310c4     KernelImpl.obj
 0003:000000e4       ??_R0?AVout_of_range@std@@@8 100310e4     KernelImpl.obj
 0003:00000104       ??_R0?AVCKernelImpl@serve@@@8 10031104     KernelImpl.obj
 0003:00000128       ??_R0?AVruntime_error@std@@@8 10031128     ListenSocket.obj
 0003:00000148       ??_R0?AVfailure@ios_base@std@@@8 10031148     ListenSocket.obj
 0003:00000170       ??_R0?AVCCriticalSection@sbase@@@8 10031170     MsgRouter.obj
 0003:00000198       ??_R0?AVILockObj@sbase@@@8 10031198     MsgRouter.obj
 0003:000001b8       ??_R0?AVIPort@serve@@@8    100311b8     MsgRouter.obj
 0003:000001d4       ??_R0?AVIRouter@serve@@@8  100311d4     MsgRouter.obj
 0003:000001f0       ??_R0?AVCRouterPort@serve@@@8 100311f0     MsgRouter.obj
 0003:00000210       ??_R0?AVCMsgRouter@serve@@@8 10031210     MsgRouter.obj
 0003:00000234       ??_R0?AVCMsg@sbase@@@8     10031234     NetClient.obj
 0003:00000250       ??_R0?AVINetClient@@@8     10031250     NetClient.obj
 0003:0000026c       ??_R0?AVIClientSocketEvent@net@@@8 1003126c     NetClient.obj
 0003:00000294       ??_R0?AVIEncryptor@net@@@8 10031294     NetClient.obj
 0003:000002b8       ??_R0?AV?$TEncryptClient@$0CA@$0PN@$06$0BP@$0HK@$0MP@$0OF@$0DP@@net@@@8 100312b8     NetClient.obj
 0003:00000304       ??_R0?AVCNetClient@@@8     10031304     NetClient.obj
 0003:00000328       ??_R0?AVIServeSocketEvent@net@@@8 10031328     NetServeImpl.obj
 0003:0000034c       ??_R0?AVIModule@sbase@@@8  1003134c     NetServeImpl.obj
 0003:00000368       ??_R0?AVIServe@serve@@@8   10031368     NetServeImpl.obj
 0003:00000384       ??_R0?AV?$TEncryptServer@$0LCJNDMIE@$0MMGCEKNK@@net@@@8 10031384     NetServeImpl.obj
 0003:000003c0       ??_R0?AVCNetworkServeImpl@ns@@@8 100313c0     NetServeImpl.obj
 0003:000003ec       ??_R0?AVIThreadEvent@sbase@@@8 100313ec     Serve.obj
 0003:00000410       ??_R0?AVCServe@serve@@@8   10031410     Serve.obj
 0003:00000430       ??_R0?AVfacet@locale@std@@@8 10031430     ServeSocket.obj
 0003:00000450       ??_R0?AVIServeSocket@net@@@8 10031450     ServeSocket.obj
 0003:00000470       ??_R0?AVCListenSocket@net@@@8 10031470     ServeSocket.obj
 0003:00000490       ??_R0?AV?$num_put@DV?$ostreambuf_iterator@DU?$char_traits@D@std@@@std@@@std@@@8 10031490     ServeSocket.obj
 0003:000004e4       ??_R0?AV?$numpunct@D@std@@@8 100314e4     ServeSocket.obj
 0003:00000504       ??_R0?AVCServeSocket@net@@@8 10031504     ServeSocket.obj
 0003:00000524       ??_R0?AVbad_cast@std@@@8   10031524     ServeSocket.obj
 0003:00000544       ??_R0?AVCSocket@net@@@8    10031544     Socket.obj
 0003:00000568       ?s_wConsoleWidth@sbase@@3GA 10031568     base:SvrBase.obj
 0003:0000056c       ?s_wConsoleHeight@sbase@@3GA 1003156c     base:SvrBase.obj
 0003:0000057c       ??_R0?AVCThread@sbase@@@8  1003157c     base:Thread.obj
 0003:000005a8       ??_R0?AUctype_base@std@@@8 100315a8     libcpmt:cout.obj
 0003:000005c8       ??_R0?AVios_base@std@@@8   100315c8     libcpmt:cout.obj
 0003:000005e4       ??_R0?AV?$_Iosb@H@std@@@8  100315e4     libcpmt:cout.obj
 0003:00000600       ??_R0?AV?$basic_ostream@DU?$char_traits@D@std@@@std@@@8 10031600     libcpmt:cout.obj
 0003:0000063c       ??_R0?AV?$basic_ios@DU?$char_traits@D@std@@@std@@@8 1003163c     libcpmt:cout.obj
 0003:00000674       ??_R0?AV?$basic_streambuf@DU?$char_traits@D@std@@@std@@@8 10031674     libcpmt:cout.obj
 0003:000006b0       ??_R0?AV?$basic_filebuf@DU?$char_traits@D@std@@@std@@@8 100316b0     libcpmt:cout.obj
 0003:000006ec       ??_R0?AVcodecvt_base@std@@@8 100316ec     libcpmt:cout.obj
 0003:0000070c       ??_R0?AV?$ctype@D@std@@@8  1003170c     libcpmt:cout.obj
 0003:00000728       ??_R0?AV?$codecvt@DDH@std@@@8 10031728     libcpmt:cout.obj
 0003:00000750       ??_R0?AV_Locimp@locale@std@@@8 10031750     libcpmt:locale0.obj
 0003:00000778       ?_Sync@ios_base@std@@0_NA  10031778     libcpmt:ios.obj
 0003:00000788       ?_PJP_CPP_Copyright@@3PADA 10031788     libcpmt:iosptrs.obj
 0003:000007f8       ??_R0?AVtype_info@@@8      100317f8     LIBCMT:typinfo.obj
 0003:00000810       ___security_cookie         10031810     LIBCMT:gs_cookie.obj
 0003:00000814       ___security_cookie_complement 10031814     LIBCMT:gs_cookie.obj
 0003:0000081c       ?__pMyUnhandledExceptionFilter@@3PAXA 1003181c     LIBCMT:throw.obj
 0003:00000820       ___lconv_static_decimal    10031820     LIBCMT:lconv.obj
 0003:00000824       ___lconv_c                 10031824     LIBCMT:lconv.obj
 0003:00000854       ___lconv                   10031854     LIBCMT:lconv.obj
 0003:00000860       __fltused                  10031860     LIBCMT:fpinit.obj
 0003:00000864       __ldused                   10031864     LIBCMT:fpinit.obj
 0003:00000898       ??_R0?AVbad_exception@std@@@8 10031898     LIBCMT:frame.obj
 0003:000008b8       __iob                      100318b8     LIBCMT:_file.obj
 0003:00000cac       __pctype                   10031cac     LIBCMT:ctype.obj
 0003:00000cb0       __pwctype                  10031cb0     LIBCMT:ctype.obj
 0003:00000cb4       ___abort_behavior          10031cb4     LIBCMT:abort.obj
 0003:00000d78       ___flsindex                10031d78     LIBCMT:tidtable.obj
 0003:00000d7c       ___getvalueindex           10031d7c     LIBCMT:tidtable.obj
 0003:00000d80       ___nullstring              10031d80     LIBCMT:output.obj
 0003:00000d84       ___wnullstring             10031d84     LIBCMT:output.obj
 0003:00000d88       __aexit_rtn                10031d88     LIBCMT:crt0dat.obj
 0003:00000d8c       ___globallocalestatus      10031d8c     LIBCMT:glstatus.obj
 0003:00000d90       ___clocalestr              10031d90     LIBCMT:nlsdata2.obj
 0003:00000d98       ___initiallocinfo          10031d98     LIBCMT:nlsdata2.obj
 0003:00000e70       ___ptlocinfo               10031e70     LIBCMT:nlsdata2.obj
 0003:00000e74       ___lc_clike                10031e74     LIBCMT:nlsdata2.obj
 0003:00000e78       ___initiallocalestructinfo 10031e78     LIBCMT:nlsdata2.obj
 0003:00000e80       __cfltcvt_tab              10031e80     LIBCMT:cmiscdat.obj
 0003:00000ea8       ___badioinfo               10031ea8     LIBCMT:ioinit.obj
 0003:00000ed0       __amblksiz                 10031ed0     LIBCMT:heapinit.obj
 0003:00000ed8       __XcptActTab               10031ed8     LIBCMT:winxfltr.obj
 0003:00000f50       __First_FPE_Indx           10031f50     LIBCMT:winxfltr.obj
 0003:00000f54       __Num_FPE                  10031f54     LIBCMT:winxfltr.obj
 0003:00000f58       __XcptActTabSize           10031f58     LIBCMT:winxfltr.obj
 0003:00000f5c       __XcptActTabCount          10031f5c     LIBCMT:winxfltr.obj
 0003:00000f78       __timezone                 10031f78     LIBCMT:timeset.obj
 0003:00000f7c       __daylight                 10031f7c     LIBCMT:timeset.obj
 0003:00000f80       __dstbias                  10031f80     LIBCMT:timeset.obj
 0003:00001008       __tzname                   10032008     LIBCMT:timeset.obj
 0003:00001010       __indefinite               10032010     LIBCMT:87disp.obj
 0003:0000101a       __piby2                    1003201a     LIBCMT:87disp.obj
 0003:00001160       ___lc_time_c               10032160     LIBCMT:strftime.obj
 0003:00001218       ___lc_time_curr            10032218     LIBCMT:strftime.obj
 0003:0000121c       ___mb_cur_max              1003221c     LIBCMT:nlsdata1.obj
 0003:00001220       ___decimal_point           10032220     LIBCMT:nlsdata1.obj
 0003:00001224       ___decimal_point_length    10032224     LIBCMT:nlsdata1.obj
 0003:00001228       ___initialmbcinfo          10032228     LIBCMT:mbctype.obj
 0003:00001448       __mbctype                  10032448     LIBCMT:mbctype.obj
 0003:00001550       __mbcasemap                10032550     LIBCMT:mbctype.obj
 0003:00001650       ___ptmbcinfo               10032650     LIBCMT:mbctype.obj
 0003:00001750       __NLG_Destination          10032750     LIBCMT:exsup.obj
 0003:00001760       __lpdays                   10032760     LIBCMT:days.obj
 0003:00001794       __days                     10032794     LIBCMT:days.obj
 0003:000017c8       __lookuptrailbytes         100327c8     LIBCMT:read.obj
 0003:000019e8       __matherr_flag             100329e8     LIBCMT:matherr.obj
 0003:00001a08       __coninpfh                 10032a08     LIBCMT:initcon.obj
 0003:00001a0c       __confh                    10032a0c     LIBCMT:initcon.obj
 0003:00001a10       __pow10pos                 10032a10     LIBCMT:constpow.obj
 0003:00001b70       __pow10neg                 10032b70     LIBCMT:constpow.obj
 0003:00001cd0       __d_inf                    10032cd0     LIBCMT:util.obj
 0003:00001cd8       __d_ind                    10032cd8     LIBCMT:util.obj
 0003:00001ce0       __d_max                    10032ce0     LIBCMT:util.obj
 0003:00001ce8       __d_min                    10032ce8     LIBCMT:util.obj
 0003:00001cf0       __d_mzero                  10032cf0     LIBCMT:util.obj
 0003:00001d00       ?s_pKernel@CKernelImpl@serve@@0PAV12@A 10032d00     KernelImpl.obj
 0003:00002508       ?pCommonSocketServer@CNetworkServeImpl@ns@@2PAVIServeSocket@net@@A 10033508     NetServeImpl.obj
 0003:0000250c       ?s_heap@?$TEncryptServer@$0LCJNDMIE@$0MMGCEKNK@@net@@1VCHeap@sbase@@A 1003350c     NetServeImpl.obj
 0003:00002534       ?s_heap@CRouterPort@serve@@1VCHeap@sbase@@A 10033534     RouterPort.obj
 0003:0000255c       ?_Psave@?$_Facetptr@V?$num_put@DV?$ostreambuf_iterator@DU?$char_traits@D@std@@@std@@@std@@@std@@2PBVfacet@locale@2@B 1003355c     ServeSocket.obj
 0003:00002560       ?_Psave@?$_Facetptr@V?$numpunct@D@std@@@std@@2PBVfacet@locale@2@B 10033560     ServeSocket.obj
 0003:00002564       ?id@?$num_put@DV?$ostreambuf_iterator@DU?$char_traits@D@std@@@std@@@std@@2V0locale@2@A 10033564     ServeSocket.obj
 0003:00002568       ?id@?$numpunct@D@std@@2V0locale@2@A 10033568     ServeSocket.obj
 0003:0000256c       ?s_bInit@CSocket@net@@2_NA 1003356c     Socket.obj
 0003:00002570       ?s_heap@CSocket@net@@1VCHeap@sbase@@A 10033570     Socket.obj
 0003:00002598       ?g_hStdOut@sbase@@3PAXA    10033598     base:SvrBase.obj
 0003:0000259c       ?setCnStr@sbase@@3V?$map@KV?$basic_string@DU?$char_traits@D@std@@V?$allocator@D@2@@std@@U?$less@K@2@V?$allocator@U?$pair@$$CBKV?$basic_string@DU?$char_traits@D@std@@V?$allocator@D@2@@std@@@std@@@2@@std@@A 1003359c     base:SvrBase.obj
 0003:000029a8       ?_Stinit@?1??_Init@?$basic_filebuf@DU?$char_traits@D@std@@@std@@IAEXPAU_iobuf@@W4_Initfl@23@@Z@4HA 100339a8     libcpmt:cout.obj
 0003:000029ac       ?_Psave@?$_Facetptr@V?$ctype@D@std@@@std@@2PBVfacet@locale@2@B 100339ac     libcpmt:cout.obj
 0003:000029b0       ?_Psave@?$_Facetptr@V?$codecvt@DDH@std@@@std@@2PBVfacet@locale@2@B 100339b0     libcpmt:cout.obj
 0003:00002a10       ?cout@std@@3V?$basic_ostream@DU?$char_traits@D@std@@@1@A 10033a10     libcpmt:cout.obj
 0003:00002a48       ?id@?$codecvt@DDH@std@@2V0locale@2@A 10033a48     libcpmt:cout.obj
 0003:00002abc       ?_Clocptr@_Locimp@locale@std@@0PAV123@A 10033abc     libcpmt:locale0.obj
 0003:00002ac0       ?_Id_cnt@id@locale@std@@0HA 10033ac0     libcpmt:locale0.obj
 0003:00002ac4       ?id@?$ctype@D@std@@2V0locale@2@A 10033ac4     libcpmt:locale0.obj
 0003:00002ac8       ?id@?$codecvt@GDH@std@@2V0locale@2@A 10033ac8     libcpmt:locale0.obj
 0003:00002acc       ?id@?$ctype@_W@std@@2V0locale@2@A 10033acc     libcpmt:locale0.obj
 0003:00002ad0       ?id@?$codecvt@_WDH@std@@2V0locale@2@A 10033ad0     libcpmt:locale0.obj
 0003:00002ad8       ?id@?$ctype@G@std@@2V0locale@2@A 10033ad8     libcpmt:locale0.obj
 0003:00002ae0       ?_Fpz@std@@3_JA            10033ae0     libcpmt:ios.obj
 0003:00002ae8       ?_Index@ios_base@std@@0HA  10033ae8     libcpmt:ios.obj
 0003:00002b20       ?_Ptr_cin@std@@3PAV?$basic_istream@DU?$char_traits@D@std@@@1@A 10033b20     libcpmt:iosptrs.obj
 0003:00002b24       ?_Ptr_cout@std@@3PAV?$basic_ostream@DU?$char_traits@D@std@@@1@A 10033b24     libcpmt:iosptrs.obj
 0003:00002b28       ?_Ptr_cerr@std@@3PAV?$basic_ostream@DU?$char_traits@D@std@@@1@A 10033b28     libcpmt:iosptrs.obj
 0003:00002b2c       ?_Ptr_clog@std@@3PAV?$basic_ostream@DU?$char_traits@D@std@@@1@A 10033b2c     libcpmt:iosptrs.obj
 0003:00002b30       ?_Ptr_wcin@std@@3PAV?$basic_istream@_WU?$char_traits@_W@std@@@1@A 10033b30     libcpmt:iosptrs.obj
 0003:00002b34       ?_Ptr_wcout@std@@3PAV?$basic_ostream@_WU?$char_traits@_W@std@@@1@A 10033b34     libcpmt:iosptrs.obj
 0003:00002b38       ?_Ptr_wcerr@std@@3PAV?$basic_ostream@_WU?$char_traits@_W@std@@@1@A 10033b38     libcpmt:iosptrs.obj
 0003:00002b3c       ?_Ptr_wclog@std@@3PAV?$basic_ostream@_WU?$char_traits@_W@std@@@1@A 10033b3c     libcpmt:iosptrs.obj
 0003:00002c80       ___pInvalidArgHandler      10033c80     LIBCMT:invarg.obj
 0003:00002c84       ___lconv_static_null       10033c84     LIBCMT:lconv.obj
 0003:00002c88       ___fastflag                10033c88     LIBCMT:fpinit.obj
 0003:00002c8c       __adjust_fdiv              10033c8c     LIBCMT:fpinit.obj
 0003:00002c98       __aenvptr                  10033c98     LIBCMT:dllcrt0.obj
 0003:00002c9c       __wenvptr                  10033c9c     LIBCMT:dllcrt0.obj
 0003:00002ca0       ___error_mode              10033ca0     LIBCMT:dllcrt0.obj
 0003:00002ca4       ___app_type                10033ca4     LIBCMT:dllcrt0.obj
 0003:00002ca8       __cflush                   10033ca8     LIBCMT:_file.obj
 0003:00002cac       ___locale_changed          10033cac     LIBCMT:setlocal.obj
 0003:00002cb4       __maxwait                  10033cb4     LIBCMT:crtheap.obj
 0003:00002fd4       _gpFlsAlloc                10033fd4     LIBCMT:tidtable.obj
 0003:00002fd8       _gpFlsGetValue             10033fd8     LIBCMT:tidtable.obj
 0003:00002fdc       _gpFlsSetValue             10033fdc     LIBCMT:tidtable.obj
 0003:00002fe0       _gpFlsFree                 10033fe0     LIBCMT:tidtable.obj
 0003:00002fec       ___pPurecall               10033fec     LIBCMT:inithelp.obj
 0003:00002ff0       ?__pInconsistency@@3P6AXXZA 10033ff0     LIBCMT:hooks.obj
 0003:0000331c       ?_pnhHeap@@3P6AHI@ZA       1003431c     LIBCMT:handler.obj
 0003:00003328       __umaskval                 10034328     LIBCMT:crt0dat.obj
 0003:0000332c       __osplatform               1003432c     LIBCMT:crt0dat.obj
 0003:00003330       __osver                    10034330     LIBCMT:crt0dat.obj
 0003:00003334       __winver                   10034334     LIBCMT:crt0dat.obj
 0003:00003338       __winmajor                 10034338     LIBCMT:crt0dat.obj
 0003:0000333c       __winminor                 1003433c     LIBCMT:crt0dat.obj
 0003:00003340       ___argc                    10034340     LIBCMT:crt0dat.obj
 0003:00003344       ___argv                    10034344     LIBCMT:crt0dat.obj
 0003:00003348       ___wargv                   10034348     LIBCMT:crt0dat.obj
 0003:0000334c       __environ                  1003434c     LIBCMT:crt0dat.obj
 0003:00003350       ___initenv                 10034350     LIBCMT:crt0dat.obj
 0003:00003354       __wenviron                 10034354     LIBCMT:crt0dat.obj
 0003:00003358       ___winitenv                10034358     LIBCMT:crt0dat.obj
 0003:0000335c       __pgmptr                   1003435c     LIBCMT:crt0dat.obj
 0003:00003360       __wpgmptr                  10034360     LIBCMT:crt0dat.obj
 0003:00003364       __exitflag                 10034364     LIBCMT:crt0dat.obj
 0003:00003368       __C_Termination_Done       10034368     LIBCMT:crt0dat.obj
 0003:0000336c       __C_Exit_Done              1003436c     LIBCMT:crt0dat.obj
 0003:00003370       ___lc_handle               10034370     LIBCMT:nlsdata2.obj
 0003:00003388       ___lc_codepage             10034388     LIBCMT:nlsdata2.obj
 0003:0000338c       ___lc_collate_cp           1003438c     LIBCMT:nlsdata2.obj
 0003:00003390       __stdbuf                   10034390     LIBCMT:_sftbuf.obj
 0003:000034a4       __crtheap                  100344a4     LIBCMT:heapinit.obj
 0003:000036d0       ___sbh_pHeaderDefer        100346d0     LIBCMT:sbheap.obj
 0003:000036dc       ___mbulinfo                100346dc     LIBCMT:mbctype.obj
 0003:000036e8       ___mbcodepage              100346e8     LIBCMT:mbctype.obj
 0003:000036ec       ___ismbcodepage            100346ec     LIBCMT:mbctype.obj
 0003:000036f0       ___mblcid                  100346f0     LIBCMT:mbctype.obj
 0003:00003708       __newmode                  10034708     LIBCMT:_newmode.obj
 0003:00003720       ?pArgList@UnDecorator@@0PAVReplicator@@A 10034720     LIBCMT:undname.obj
 0003:00003724       ?pZNameList@UnDecorator@@0PAVReplicator@@A 10034724     LIBCMT:undname.obj
 0003:00003728       ?pTemplateArgList@UnDecorator@@0PAVReplicator@@A 10034728     LIBCMT:undname.obj
 0003:0000372c       ?gName@UnDecorator@@0PBDB  1003472c     LIBCMT:undname.obj
 0003:00003730       ?name@UnDecorator@@0PBDB   10034730     LIBCMT:undname.obj
 0003:00003734       ?outputString@UnDecorator@@0PADA 10034734     LIBCMT:undname.obj
 0003:00003738       ?maxStringLength@UnDecorator@@0HA 10034738     LIBCMT:undname.obj
 0003:0000373c       ?disableFlags@UnDecorator@@0KA 1003473c     LIBCMT:undname.obj
 0003:00003740       ?m_pGetParameter@UnDecorator@@0P6APADJ@ZA 10034740     LIBCMT:undname.obj
 0003:00003744       ?fExplicitTemplateParams@UnDecorator@@0_NA 10034744     LIBCMT:undname.obj
 0003:00003745       ?fGetTemplateArgumentList@UnDecorator@@0_NA 10034745     LIBCMT:undname.obj
 0003:0000376c       __outputformat             1003476c     LIBCMT:outputformat.obj
 0003:00003770       __commode                  10034770     LIBCMT:ncommode.obj
 0003:00003778       __fmode                    10034778     LIBCMT:txtmode.obj
 0003:0000377c       ___sbh_cntHeaderList       1003477c     <common>
 0003:00003780       ___sbh_pHeaderList         10034780     <common>
 0003:00003784       ___sbh_threshold           10034784     <common>
 0003:00003788       ___sbh_pHeaderScan         10034788     <common>
 0003:0000378c       ___sbh_sizeHeaderList      1003478c     <common>
 0003:00003790       ___sbh_indGroupDefer       10034790     <common>
 0003:00003794       ___active_heap             10034794     <common>
 0003:00003798       __nhandle                  10034798     <common>
 0003:000037a0       ___pioinfo                 100347a0     <common>
 0003:000038a0       ___env_initialized         100348a0     <common>
 0003:000038a4       ___onexitend               100348a4     <common>
 0003:000038a8       ___onexitbegin             100348a8     <common>
 0003:000038ac       ___mbctype_initialized     100348ac     <common>
 0003:000038b0       ___dyn_tls_init_callback   100348b0     <common>
 0003:000038b4       __debugger_hook_dummy      100348b4     <common>
 0003:000038b8       ___use_sse2_mathfcns       100348b8     <common>
 0003:000038bc       ___sse2_available          100348bc     <common>
 0003:000038c0       ___piob                    100348c0     <common>
 0003:000038e0       __bufin                    100348e0     <common>
 0003:000048e0       __nstream                  100358e0     <common>
 0003:000048e4       __acmdln                   100358e4     <common>

 entry point at        0001:0000f87a

 Static symbols

 0001:00000368       __catch$?Process@CClientSocket@net@@UAEXXZ$0 10001368 f   ClientSocket.obj
 0001:0000045d       __catch$?ChgEncryptor@CClientSocket@net@@UAEXW4ENCRYPTOR_TYPE@2@PAVIEncryptor@2@@Z$4 1000145d f   ClientSocket.obj
 0001:000004a4       __catch$?ChgEncryptor@CClientSocket@net@@UAEXW4ENCRYPTOR_TYPE@2@PAVIEncryptor@2@@Z$6 100014a4 f   ClientSocket.obj
 0001:00000503       __catch$?ChgEncryptor@CClientSocket@net@@UAEXW4ENCRYPTOR_TYPE@2@PAVIEncryptor@2@@Z$2 10001503 f   ClientSocket.obj
 0001:00000548       __catch$?ChgEncryptor@CClientSocket@net@@UAEXW4ENCRYPTOR_TYPE@2@PAVIEncryptor@2@@Z$0 10001548 f   ClientSocket.obj
 0001:000007cd       __catch$?_Copy@?$basic_string@DU?$char_traits@D@std@@V?$allocator@D@2@@std@@IAEXII@Z$0 100017cd f i ClientSocket.obj
 0001:00000860       __catch$?_Copy@?$basic_string@DU?$char_traits@D@std@@V?$allocator@D@2@@std@@IAEXII@Z$1 10001860 f i ClientSocket.obj
 0001:00000a5a       __catch$??1CClientSocket@net@@UAE@XZ$0 10001a5a f   ClientSocket.obj
 0001:00000a7b       __catch$??1CClientSocket@net@@UAE@XZ$2 10001a7b f   ClientSocket.obj
 0001:00000ab0       __catch$??1CClientSocket@net@@UAE@XZ$4 10001ab0 f   ClientSocket.obj
 0001:00001112       __catch$?ClientSocketCreate@net@@YAPAVIClientSocket@1@AAVIClientSocketEvent@1@PBDHKPAVIEncryptor@1@2@Z$0 10002112 f   ClientSocket.obj
 0001:0000115d       __catch$?ClientSocketCreate@net@@YAPAVIClientSocket@1@AAVIClientSocketEvent@1@PBDHKPAVIEncryptor@1@2@Z$2 1000215d f   ClientSocket.obj
 0001:000011b7       __catch$?ClientSocketCreate@net@@YAPAVIClientSocket@1@AAVIClientSocketEvent@1@PBDHKPAVIEncryptor@1@2@Z$4 100021b7 f   ClientSocket.obj
 0001:0000259d       __catch$?_Buynode@?$_Tree@V?$_Tmap_traits@V?$basic_string@DU?$char_traits@D@std@@V?$allocator@D@2@@std@@PAVCServe@serve@@U?$less@V?$basic_string@DU?$char_traits@D@std@@V?$allocator@D@2@@std@@@2@V?$allocator@U?$pair@$$CBV?$basic_string@DU?$char_traits@D@std@@V?$allocator@D@2@@std@@PAVCServe@serve@@@std@@@2@$0A@@std@@@std@@IAEPAU_Node@?$_Tree_nod@V?$_Tmap_traits@V?$basic_string@DU?$char_traits@D@std@@V?$allocator@D@2@@std@@PAVCServe@serve@@U?$less@V?$basic_string@DU?$char_traits@D@std@@V?$allocator@D@2@@std@@@2@V?$allocator@U?$pair@$$CBV?$basic_string@DU?$char_traits@D@std@@V?$allocator@D@2@@std@@PAVCServe@serve@@@std@@@2@$0A@@std@@@2@PAU342@00ABU?$pair@$$CBV?$basic_string@DU?$char_traits@D@std@@V?$allocator@D@2@@std@@PAVCServe@serve@@@2@D@Z$0 1000359d f i KernelImpl.obj
 0001:00003499       __catch$??1CKernelImpl@serve@@MAE@XZ$0 10004499 f   KernelImpl.obj
 0001:000035b1       __catch$??1CKernelImpl@serve@@MAE@XZ$2 100045b1 f   KernelImpl.obj
 0001:000037b0       __catch$_NetServiceCreate$0 100047b0 f   KernelImpl.obj
 0001:00003fd3       __catch$?_Osfx@?$basic_ostream@DU?$char_traits@D@std@@@std@@QAEXXZ$0 10004fd3 f i ListenSocket.obj
 0001:00004218       __catch$??$?6U?$char_traits@D@std@@@std@@YAAAV?$basic_ostream@DU?$char_traits@D@std@@@0@AAV10@PBD@Z$0 10005218 f i ListenSocket.obj
 0001:000042fc       __catch$?put@?$basic_ostream@DU?$char_traits@D@std@@@std@@QAEAAV12@D@Z$0 100052fc f i ListenSocket.obj
 0001:00004c8f       __catch$??1CMsgRouter@serve@@MAE@XZ$0 10005c8f f   MsgRouter.obj
 0001:00004ff6       __catch$?DisConnect@CNetClient@@UAEXXZ$0 10005ff6 f   NetClient.obj
 0001:00005271       __catch$?Connect@CNetClient@@UAE_NXZ$0 10006271 f   NetClient.obj
 0001:00005409       __catch$??1CNetClient@@QAE@XZ$0 10006409 f   NetClient.obj
 0001:00005785       __catch$?OnRcvMsg@CNetClient@@UAEHPBXH@Z$0 10006785 f   NetClient.obj
 0001:00005fc0       __catch$??1CNetworkServeImpl@ns@@UAE@XZ$0 10006fc0 f   NetServeImpl.obj
 0001:0000650d       __catch$?ServeCreate@ns@@YAPAVIServe@serve@@PAVIRouter@3@GW4TYPE@1@@Z$0 1000750d f   NetServeImpl.obj
 0001:000065af       __catch$?ServeCreate@ns@@YAPAVIServe@serve@@PAVIRouter@3@GW4TYPE@1@@Z$2 100075af f   NetServeImpl.obj
 0001:00006d5a       __catch$??1CServe@serve@@UAE@XZ$0 10007d5a f   Serve.obj
 0001:00007364       __catch$?CloseAll@CServeSocket@net@@IAEXXZ$0 10008364 f   ServeSocket.obj
 0001:00007faf       __catch$?_Init@?$numpunct@D@std@@IAEXABV_Locinfo@2@@Z$0 10008faf f i ServeSocket.obj
 0001:000089fb       __catch$??1CServeSocket@net@@UAE@XZ$0 100099fb f   ServeSocket.obj
 0001:00008a38       __catch$??1CServeSocket@net@@UAE@XZ$2 10009a38 f   ServeSocket.obj
 0001:00008f7d       __catch$?ServeSocketCreate@net@@YAPAVIServeSocket@1@AAVIServeSocketEvent@1@HPADPAVIEncryptor@1@2@Z$0 10009f7d f   ServeSocket.obj
 0001:00008fc4       __catch$?ServeSocketCreate@net@@YAPAVIServeSocket@1@AAVIServeSocketEvent@1@HPADPAVIEncryptor@1@2@Z$2 10009fc4 f   ServeSocket.obj
 0001:0000904a       __catch$?ServeSocketCreate@net@@YAPAVIServeSocket@1@AAVIServeSocketEvent@1@HPADPAVIEncryptor@1@2@Z$4 1000a04a f   ServeSocket.obj
 0001:00009e53       __catch$??6?$basic_ostream@DU?$char_traits@D@std@@@std@@QAEAAV01@I@Z$0 1000ae53 f i ServeSocket.obj
 0001:0000abdd       __catch$?Process@CServeSocket@net@@UAEXXZ$0 1000bbdd f   ServeSocket.obj
 0001:0000ae2c       __catch$?ChgEncryptor@CSocket@net@@QAEXW4ENCRYPTOR_TYPE@2@PAVIEncryptor@2@@Z$4 1000be2c f   Socket.obj
 0001:0000ae8c       __catch$?ChgEncryptor@CSocket@net@@QAEXW4ENCRYPTOR_TYPE@2@PAVIEncryptor@2@@Z$6 1000be8c f   Socket.obj
 0001:0000aecd       __catch$?ChgEncryptor@CSocket@net@@QAEXW4ENCRYPTOR_TYPE@2@PAVIEncryptor@2@@Z$2 1000becd f   Socket.obj
 0001:0000af3d       __catch$?ChgEncryptor@CSocket@net@@QAEXW4ENCRYPTOR_TYPE@2@PAVIEncryptor@2@@Z$0 1000bf3d f   Socket.obj
 0001:0000b3b9       __catch$??1CSocket@net@@UAE@XZ$0 1000c3b9 f   Socket.obj
 0001:0000b3f4       __catch$??1CSocket@net@@UAE@XZ$2 1000c3f4 f   Socket.obj
 0001:0000dc08       _tidy_global               1000ec08 f   libcpmt:locale0.obj
 0001:0000e2c7       __ReleaseCPLocHash         1000f2c7 f   libcpmt:xmbtowc.obj
 0001:0000e305       __InitCPLocHash            1000f305 f   libcpmt:xmbtowc.obj
 0001:0000ea74       ?CatchGuardHandler@@YA?AW4_EXCEPTION_DISPOSITION@@PAUEHExceptionRecord@@PAUCatchGuardRN@@PAX2@Z 1000fa74 f   LIBCMT:trnsctrl.obj
 0001:0000eb79       ?TranslatorGuardHandler@@YA?AW4_EXCEPTION_DISPOSITION@@PAUEHExceptionRecord@@PAUTranslatorGuardRN@@PAX2@Z 1000fb79 f   LIBCMT:trnsctrl.obj
 0001:0000f1cc       __onexit_nolock            100101cc f   LIBCMT:onexit.obj
 0001:0000f784       ___DllMainCRTStartup       10010784 f   LIBCMT:dllcrt0.obj
 0001:0001097b       ?ExFilterRethrow@@YAHPAU_EXCEPTION_POINTERS@@@Z 1001197b f   LIBCMT:frame.obj
 0001:00010a4c       ?IsInExceptionSpec@@YAEPAUEHExceptionRecord@@PBU_s_ESTypeList@@@Z 10011a4c f   LIBCMT:frame.obj
 0001:00010ac5       ?CallUnexpected@@YAXPBU_s_ESTypeList@@@Z 10011ac5 f   LIBCMT:frame.obj
 0001:00010af6       __catch$?CallUnexpected@@YAXPBU_s_ESTypeList@@@Z$0 10011af6 f   LIBCMT:frame.obj
 0001:00010b0e       ?CallCatchBlock@@YAPAXPAUEHExceptionRecord@@PAUEHRegistrationNode@@PAU_CONTEXT@@PBU_s_FuncInfo@@PAXHK@Z 10011b0e f   LIBCMT:frame.obj
 0001:00010eba       ?CatchIt@@YAXPAUEHExceptionRecord@@PAUEHRegistrationNode@@PAU_CONTEXT@@PAXPBU_s_FuncInfo@@PBU_s_HandlerType@@PBU_s_CatchableType@@PBU_s_TryBlockMapEntry@@H1E@Z 10011eba f   LIBCMT:frame.obj
 0001:00010f26       ?FindHandlerForForeignException@@YAXPAUEHExceptionRecord@@PAUEHRegistrationNode@@PAU_CONTEXT@@PAXPBU_s_FuncInfo@@HH1@Z 10011f26 f   LIBCMT:frame.obj
 0001:00011018       ?FindHandler@@YAXPAUEHExceptionRecord@@PAUEHRegistrationNode@@PAU_CONTEXT@@PAXPBU_s_FuncInfo@@EH1@Z 10012018 f   LIBCMT:frame.obj
 0001:0001186b       _flsall                    1001286b f   LIBCMT:fflush.obj
 0001:0001262c       __copytlocinfo_nolock      1001362c f   LIBCMT:setlocal.obj
 0001:00012650       __updatetlocinfoEx_nolock  10013650 f   LIBCMT:setlocal.obj
 0001:00012704       _sync_legacy_variables_lk  10013704 f   LIBCMT:setlocal.obj
 0001:000129bf       __setlocale_get_all        100139bf f   LIBCMT:setlocal.obj
 0001:00012d04       __setlocale_set_cat        10013d04 f   LIBCMT:setlocal.obj
 0001:00012ffa       __setlocale_nolock         10013ffa f   LIBCMT:setlocal.obj
 0001:000133d5       ?__crtLCMapStringA_stat@@YAHPAUlocaleinfo_struct@@KKPBDHPADHHH@Z 100143d5 f   LIBCMT:a_map.obj
 0001:00013b7f       _xtoa_s@20                 10014b7f f   LIBCMT:xtoas.obj
 0001:00013c82       _fastcopy_I                10014c82 f   LIBCMT:p4_memcpy.obj
 0001:000151a5       _write_string              100161a5 f   LIBCMT:output.obj
 0001:000151a5       _write_string              100161a5 f   LIBCMT:output.obj
 0001:00015b87       _write_char                10016b87 f   LIBCMT:outputs.obj
 0001:00015b87       _write_char                10016b87 f   LIBCMT:outputs.obj
 0001:00015bba       _write_multi_char          10016bba f   LIBCMT:outputs.obj
 0001:00015bba       _write_multi_char          10016bba f   LIBCMT:outputs.obj
 0001:0001658e       _fastzero_I                1001758e f   LIBCMT:p4_memset.obj
 0001:00016674       ?strtoxl@@YAKPAUlocaleinfo_struct@@PBDPAPBDHH@Z 10017674 f   LIBCMT:strtol.obj
 0001:000169dc       __initterm                 100179dc f   LIBCMT:crt0dat.obj
 0001:00016b19       _doexit                    10017b19 f   LIBCMT:crt0dat.obj
 0001:00016fa4       __shift                    10017fa4 f   LIBCMT:cvt.obj
 0001:00016fdd       __cftoe2_l                 10017fdd f   LIBCMT:cvt.obj
 0001:000175a7       __cftof2_l                 100185a7 f   LIBCMT:cvt.obj
 0001:00017dcd       _parse_cmdline             10018dcd f   LIBCMT:stdargv.obj
 0001:00018718       __tzset_nolock             10019718 f   LIBCMT:tzset.obj
 0001:00018a57       _cvtdate                   10019a57 f   LIBCMT:tzset.obj
 0001:00018c4c       __isindst_nolock           10019c4c f   LIBCMT:tzset.obj
 0001:00019ecc       __unwind_handler4          1001aecc f   LIBCMT:exsup4.obj
 0001:0001bc60       ?__crtGetStringTypeA_stat@@YAHPAUlocaleinfo_struct@@KPBDHPAGHHH@Z 1001cc60 f   LIBCMT:a_str.obj
 0001:0001be58       __get_lc_time              1001ce58 f   LIBCMT:inittime.obj
 0001:0001c9c9       ?CPtoLCID@@YAHH@Z          1001d9c9 f   LIBCMT:mbctype.obj
 0001:0001c9f8       ?setSBCS@@YAXPAUthreadmbcinfostruct@@@Z 1001d9f8 f   LIBCMT:mbctype.obj
 0001:0001ca4d       ?setSBUpLow@@YAXPAUthreadmbcinfostruct@@@Z 1001da4d f   LIBCMT:mbctype.obj
 0001:0001cc7b       ?getSystemCP@@YAHH@Z       1001dc7b f   LIBCMT:mbctype.obj
 0001:0001d17c       _TranslateName             1001e17c f   LIBCMT:getqloc.obj
 0001:0001d1dc       _ProcessCodePage           1001e1dc f   LIBCMT:getqloc.obj
 0001:0001d253       _TestDefaultCountry        1001e253 f   LIBCMT:getqloc.obj
 0001:0001d271       _LcidFromHexString         1001e271 f   LIBCMT:getqloc.obj
 0001:0001d2a3       _GetPrimaryLen             1001e2a3 f   LIBCMT:getqloc.obj
 0001:0001d2be       _CountryEnumProc@4         1001e2be f   LIBCMT:getqloc.obj
 0001:0001d354       _TestDefaultLanguage       1001e354 f   LIBCMT:getqloc.obj
 0001:0001d3c6       _LangCountryEnumProc@4     1001e3c6 f   LIBCMT:getqloc.obj
 0001:0001d596       _LanguageEnumProc@4        1001e596 f   LIBCMT:getqloc.obj
 0001:0001d655       _GetLcidFromLangCountry    1001e655 f   LIBCMT:getqloc.obj
 0001:0001d6ba       _GetLcidFromLanguage       1001e6ba f   LIBCMT:getqloc.obj
 0001:0001f6db       _siglookup                 100206db f   LIBCMT:winsig.obj
 0001:0001f965       _has_osfxsr_set            10020965 f   LIBCMT:cpu_disp.obj
 0001:0001fc06       ?__crtGetLocaleInfoW_stat@@YAHPAUlocaleinfo_struct@@KKPA_WHH@Z 10020c06 f   LIBCMT:w_loc.obj
 0001:0001fd7c       ?__crtGetLocaleInfoA_stat@@YAHPAUlocaleinfo_struct@@KKPADHH@Z 10020d7c f   LIBCMT:a_loc.obj
 0001:0001ff14       __unwind_handler           10020f14 f   LIBCMT:exsup.obj
 0001:000204e2       ___crtInitCritSecNoSpinCount@8 100214e2 f   LIBCMT:initcrit.obj
 0001:00020bf2       ?x_ismbbtype_l@@YAHPAUlocaleinfo_struct@@IHH@Z 10021bf2 f   LIBCMT:ismbbyte.obj
 0001:000211a3       __tsopen_nolock            100221a3 f   LIBCMT:open.obj
 0001:00024196       __hw_cw                    10025196 f   LIBCMT:ieee87.obj
 0001:00024224       ___hw_cw_sse2              10025224 f   LIBCMT:ieee87.obj
 0001:0002528d       ?__crtCompareStringA_stat@@YAHPAUlocaleinfo_struct@@KKPBDH1HH@Z 1002628d f   LIBCMT:a_cmp.obj
 0001:0002574e       _findenv                   1002674e f   LIBCMT:setenv.obj
 0001:0002579b       _copy_environ              1002679b f   LIBCMT:setenv.obj
 0001:00025db0       __ehhandler$?Process@CClientSocket@net@@UAEXXZ 10026db0 f   ClientSocket.obj
 0001:00025dd0       __ehhandler$?ChgEncryptor@CClientSocket@net@@UAEXW4ENCRYPTOR_TYPE@2@PAVIEncryptor@2@@Z 10026dd0 f   ClientSocket.obj
 0001:00025df0       __ehhandler$?_Copy@?$basic_string@DU?$char_traits@D@std@@V?$allocator@D@2@@std@@IAEXII@Z 10026df0 f   ClientSocket.obj
 0001:00025e10       __unwindfunclet$??1CClientSocket@net@@UAE@XZ$6 10026e10 f   ClientSocket.obj
 0001:00025e1b       __ehhandler$??1CClientSocket@net@@UAE@XZ 10026e1b f   ClientSocket.obj
 0001:00025e40       __unwindfunclet$?Init@CClientSocket@net@@QAE_NPBDHK@Z$0 10026e40 f   ClientSocket.obj
 0001:00025e4e       __ehhandler$?Init@CClientSocket@net@@QAE_NPBDHK@Z 10026e4e f   ClientSocket.obj
 0001:00025e80       __ehhandler$?ClientSocketCreate@net@@YAPAVIClientSocket@1@AAVIClientSocketEvent@1@PBDHKPAVIEncryptor@1@2@Z 10026e80 f   ClientSocket.obj
 0001:00025ea0       __unwindfunclet$?_Xlen@?$vector@PAVCMsg@sbase@@V?$allocator@PAVCMsg@sbase@@@std@@@std@@KAXXZ$0 10026ea0 f   KernelImpl.obj
 0001:00025ea0       __unwindfunclet$?_Xlen@?$vector@PAVCRouterPort@serve@@V?$allocator@PAVCRouterPort@serve@@@std@@@std@@KAXXZ$0 10026ea0 f   KernelImpl.obj
 0001:00025ea0       __unwindfunclet$?_Xlen@?$vector@PAVCServe@serve@@V?$allocator@PAVCServe@serve@@@std@@@std@@KAXXZ$0 10026ea0 f   KernelImpl.obj
 0001:00025ea8       __ehhandler$?_Xlen@?$vector@PAVCRouterPort@serve@@V?$allocator@PAVCRouterPort@serve@@@std@@@std@@KAXXZ 10026ea8 f   KernelImpl.obj
 0001:00025ea8       __ehhandler$?_Xlen@?$vector@PAVCMsg@sbase@@V?$allocator@PAVCMsg@sbase@@@std@@@std@@KAXXZ 10026ea8 f   KernelImpl.obj
 0001:00025ea8       __ehhandler$?_Xlen@?$vector@PAVCServe@serve@@V?$allocator@PAVCServe@serve@@@std@@@std@@KAXXZ 10026ea8 f   KernelImpl.obj
 0001:00025ed0       __unwindfunclet$?RunServes@CKernelImpl@serve@@MAE_NXZ$0 10026ed0 f   KernelImpl.obj
 0001:00025ed8       __ehhandler$?RunServes@CKernelImpl@serve@@MAE_NXZ 10026ed8 f   KernelImpl.obj
 0001:00025f10       __unwindfunclet$?DestroyServes@CKernelImpl@serve@@MAEXXZ$1 10026f10 f   KernelImpl.obj
 0001:00025f18       __ehhandler$?DestroyServes@CKernelImpl@serve@@MAEXXZ 10026f18 f   KernelImpl.obj
 0001:00025f40       __unwindfunclet$?_Buynode@?$_Tree@V?$_Tmap_traits@V?$basic_string@DU?$char_traits@D@std@@V?$allocator@D@2@@std@@PAVCServe@serve@@U?$less@V?$basic_string@DU?$char_traits@D@std@@V?$allocator@D@2@@std@@@2@V?$allocator@U?$pair@$$CBV?$basic_string@DU?$char_traits@D@std@@V?$allocator@D@2@@std@@PAVCServe@serve@@@std@@@2@$0A@@std@@@std@@IAEPAU_Node@?$_Tree_nod@V?$_Tmap_traits@V?$basic_string@DU?$char_traits@D@std@@V?$allocator@D@2@@std@@PAVCServe@serve@@U?$less@V?$basic_string@DU?$char_traits@D@std@@V?$allocator@D@2@@std@@@2@V?$allocator@U?$pair@$$CBV?$basic_string@DU?$char_traits@D@std@@V?$allocator@D@2@@std@@PAVCServe@serve@@@std@@@2@$0A@@std@@@2@PAU342@00ABU?$pair@$$CBV?$basic_string@DU?$char_traits@D@std@@V?$allocator@D@2@@std@@PAVCServe@serve@@@2@D@Z$2 10026f40 f   KernelImpl.obj
 0001:00025f51       __ehhandler$?_Buynode@?$_Tree@V?$_Tmap_traits@V?$basic_string@DU?$char_traits@D@std@@V?$allocator@D@2@@std@@PAVCServe@serve@@U?$less@V?$basic_string@DU?$char_traits@D@std@@V?$allocator@D@2@@std@@@2@V?$allocator@U?$pair@$$CBV?$basic_string@DU?$char_traits@D@std@@V?$allocator@D@2@@std@@PAVCServe@serve@@@std@@@2@$0A@@std@@@std@@IAEPAU_Node@?$_Tree_nod@V?$_Tmap_traits@V?$basic_string@DU?$char_traits@D@std@@V?$allocator@D@2@@std@@PAVCServe@serve@@U?$less@V?$basic_string@DU?$char_traits@D@std@@V?$allocator@D@2@@std@@@2@V?$allocator@U?$pair@$$CBV?$basic_string@DU?$char_traits@D@std@@V?$allocator@D@2@@std@@PAVCServe@serve@@@std@@@2@$0A@@std@@@2@PAU342@00ABU?$pair@$$CBV?$basic_string@DU?$char_traits@D@std@@V?$allocator@D@2@@std@@PAVCServe@serve@@@2@D@Z 10026f51 f   KernelImpl.obj
 0001:00025f70       __unwindfunclet$?_Insert@?$_Tree@V?$_Tmap_traits@GPAVCServe@serve@@U?$less@G@std@@V?$allocator@U?$pair@$$CBGPAVCServe@serve@@@std@@@4@$0A@@std@@@std@@IAE?AViterator@12@_NPAU_Node@?$_Tree_nod@V?$_Tmap_traits@GPAVCServe@serve@@U?$less@G@std@@V?$allocator@U?$pair@$$CBGPAVCServe@serve@@@std@@@4@$0A@@std@@@2@ABU?$pair@$$CBGPAVCServe@serve@@@2@@Z$0 10026f70 f   KernelImpl.obj
 0001:00025f70       __unwindfunclet$?_Insert@?$_Tree@V?$_Tmap_traits@IPAVCSocket@net@@U?$less@I@std@@V?$allocator@U?$pair@$$CBIPAVCSocket@net@@@std@@@4@$0A@@std@@@std@@IAE?AViterator@12@_NPAU_Node@?$_Tree_nod@V?$_Tmap_traits@IPAVCSocket@net@@U?$less@I@std@@V?$allocator@U?$pair@$$CBIPAVCSocket@net@@@std@@@4@$0A@@std@@@2@ABU?$pair@$$CBIPAVCSocket@net@@@2@@Z$0 10026f70 f   KernelImpl.obj
 0001:00025f70       __unwindfunclet$?_Insert@?$_Tree@V?$_Tmap_traits@V?$basic_string@DU?$char_traits@D@std@@V?$allocator@D@2@@std@@PAVCServe@serve@@U?$less@V?$basic_string@DU?$char_traits@D@std@@V?$allocator@D@2@@std@@@2@V?$allocator@U?$pair@$$CBV?$basic_string@DU?$char_traits@D@std@@V?$allocator@D@2@@std@@PAVCServe@serve@@@std@@@2@$0A@@std@@@std@@IAE?AViterator@12@_NPAU_Node@?$_Tree_nod@V?$_Tmap_traits@V?$basic_string@DU?$char_traits@D@std@@V?$allocator@D@2@@std@@PAVCServe@serve@@U?$less@V?$basic_string@DU?$char_traits@D@std@@V?$allocator@D@2@@std@@@2@V?$allocator@U?$pair@$$CBV?$basic_string@DU?$char_traits@D@std@@V?$allocator@D@2@@std@@PAVCServe@serve@@@std@@@2@$0A@@std@@@2@ABU?$pair@$$CBV?$basic_string@DU?$char_traits@D@std@@V?$allocator@D@2@@std@@PAVCServe@serve@@@2@@Z$0 10026f70 f   KernelImpl.obj
 0001:00025f70       __unwindfunclet$?_Insert@?$_Tree@V?$_Tmap_traits@IW4PORT@serve@@U?$less@I@std@@V?$allocator@U?$pair@$$CBIW4PORT@serve@@@std@@@4@$0A@@std@@@std@@IAE?AViterator@12@_NPAU_Node@?$_Tree_nod@V?$_Tmap_traits@IW4PORT@serve@@U?$less@I@std@@V?$allocator@U?$pair@$$CBIW4PORT@serve@@@std@@@4@$0A@@std@@@2@ABU?$pair@$$CBIW4PORT@serve@@@2@@Z$0 10026f70 f   KernelImpl.obj
 0001:00025f78       __ehhandler$?_Insert@?$_Tree@V?$_Tmap_traits@GPAVCServe@serve@@U?$less@G@std@@V?$allocator@U?$pair@$$CBGPAVCServe@serve@@@std@@@4@$0A@@std@@@std@@IAE?AViterator@12@_NPAU_Node@?$_Tree_nod@V?$_Tmap_traits@GPAVCServe@serve@@U?$less@G@std@@V?$allocator@U?$pair@$$CBGPAVCServe@serve@@@std@@@4@$0A@@std@@@2@ABU?$pair@$$CBGPAVCServe@serve@@@2@@Z 10026f78 f   KernelImpl.obj
 0001:00025f78       __ehhandler$?_Insert@?$_Tree@V?$_Tmap_traits@IW4PORT@serve@@U?$less@I@std@@V?$allocator@U?$pair@$$CBIW4PORT@serve@@@std@@@4@$0A@@std@@@std@@IAE?AViterator@12@_NPAU_Node@?$_Tree_nod@V?$_Tmap_traits@IW4PORT@serve@@U?$less@I@std@@V?$allocator@U?$pair@$$CBIW4PORT@serve@@@std@@@4@$0A@@std@@@2@ABU?$pair@$$CBIW4PORT@serve@@@2@@Z 10026f78 f   KernelImpl.obj
 0001:00025f78       __ehhandler$?_Insert@?$_Tree@V?$_Tmap_traits@IPAVCSocket@net@@U?$less@I@std@@V?$allocator@U?$pair@$$CBIPAVCSocket@net@@@std@@@4@$0A@@std@@@std@@IAE?AViterator@12@_NPAU_Node@?$_Tree_nod@V?$_Tmap_traits@IPAVCSocket@net@@U?$less@I@std@@V?$allocator@U?$pair@$$CBIPAVCSocket@net@@@std@@@4@$0A@@std@@@2@ABU?$pair@$$CBIPAVCSocket@net@@@2@@Z 10026f78 f   KernelImpl.obj
 0001:00025f78       __ehhandler$?_Insert@?$_Tree@V?$_Tmap_traits@V?$basic_string@DU?$char_traits@D@std@@V?$allocator@D@2@@std@@PAVCServe@serve@@U?$less@V?$basic_string@DU?$char_traits@D@std@@V?$allocator@D@2@@std@@@2@V?$allocator@U?$pair@$$CBV?$basic_string@DU?$char_traits@D@std@@V?$allocator@D@2@@std@@PAVCServe@serve@@@std@@@2@$0A@@std@@@std@@IAE?AViterator@12@_NPAU_Node@?$_Tree_nod@V?$_Tmap_traits@V?$basic_string@DU?$char_traits@D@std@@V?$allocator@D@2@@std@@PAVCServe@serve@@U?$less@V?$basic_string@DU?$char_traits@D@std@@V?$allocator@D@2@@std@@@2@V?$allocator@U?$pair@$$CBV?$basic_string@DU?$char_traits@D@std@@V?$allocator@D@2@@std@@PAVCServe@serve@@@std@@@2@$0A@@std@@@2@ABU?$pair@$$CBV?$basic_string@DU?$char_traits@D@std@@V?$allocator@D@2@@std@@PAVCServe@serve@@@2@@Z 10026f78 f   KernelImpl.obj
 0001:00025fa0       __unwindfunclet$?RegisterServe@CKernelImpl@serve@@QAE_NPAVIServe@2@PAUHINSTANCE__@@@Z$0 10026fa0 f   KernelImpl.obj
 0001:00025fab       __unwindfunclet$?RegisterServe@CKernelImpl@serve@@QAE_NPAVIServe@2@PAUHINSTANCE__@@@Z$1 10026fab f   KernelImpl.obj
 0001:00025fb3       __unwindfunclet$?RegisterServe@CKernelImpl@serve@@QAE_NPAVIServe@2@PAUHINSTANCE__@@@Z$2 10026fb3 f   KernelImpl.obj
 0001:00025fbb       __ehhandler$?RegisterServe@CKernelImpl@serve@@QAE_NPAVIServe@2@PAUHINSTANCE__@@@Z 10026fbb f   KernelImpl.obj
 0001:00025fe0       __unwindfunclet$?UnRegisterServe@CKernelImpl@serve@@QAE_NPAVCServe@2@@Z$0 10026fe0 f   KernelImpl.obj
 0001:00025fe8       __ehhandler$?UnRegisterServe@CKernelImpl@serve@@QAE_NPAVCServe@2@@Z 10026fe8 f   KernelImpl.obj
 0001:00026010       __unwindfunclet$??0CKernelImpl@serve@@IAE@XZ$0 10027010 f   KernelImpl.obj
 0001:0002601b       __unwindfunclet$??0CKernelImpl@serve@@IAE@XZ$1 1002701b f   KernelImpl.obj
 0001:00026026       __ehhandler$??0CKernelImpl@serve@@IAE@XZ 10027026 f   KernelImpl.obj
 0001:00026050       __unwindfunclet$??1CKernelImpl@serve@@MAE@XZ$4 10027050 f   KernelImpl.obj
 0001:0002605b       __unwindfunclet$??1CKernelImpl@serve@@MAE@XZ$5 1002705b f   KernelImpl.obj
 0001:00026066       __unwindfunclet$??1CKernelImpl@serve@@MAE@XZ$6 10027066 f   KernelImpl.obj
 0001:00026071       __ehhandler$??1CKernelImpl@serve@@MAE@XZ 10027071 f   KernelImpl.obj
 0001:00026090       __ehhandler$_NetServiceCreate 10027090 f   KernelImpl.obj
 0001:000260b0       __unwindfunclet$??0logic_error@std@@QAE@ABV?$basic_string@DU?$char_traits@D@std@@V?$allocator@D@2@@1@@Z$0 100270b0 f   ListenSocket.obj
 0001:000260b0       __unwindfunclet$??0runtime_error@std@@QAE@ABV?$basic_string@DU?$char_traits@D@std@@V?$allocator@D@2@@1@@Z$0 100270b0 f   ListenSocket.obj
 0001:000260b8       __ehhandler$??0logic_error@std@@QAE@ABV?$basic_string@DU?$char_traits@D@std@@V?$allocator@D@2@@1@@Z 100270b8 f   ListenSocket.obj
 0001:000260b8       __ehhandler$??0runtime_error@std@@QAE@ABV?$basic_string@DU?$char_traits@D@std@@V?$allocator@D@2@@1@@Z 100270b8 f   ListenSocket.obj
 0001:000260e0       __unwindfunclet$?clear@ios_base@std@@QAEXH_N@Z$0 100270e0 f   ListenSocket.obj
 0001:000260e8       __unwindfunclet$?clear@ios_base@std@@QAEXH_N@Z$1 100270e8 f   ListenSocket.obj
 0001:000260f0       __unwindfunclet$?clear@ios_base@std@@QAEXH_N@Z$2 100270f0 f   ListenSocket.obj
 0001:000260f8       __ehhandler$?clear@ios_base@std@@QAEXH_N@Z 100270f8 f   ListenSocket.obj
 0001:00026120       __unwindfunclet$??0runtime_error@std@@QAE@ABV01@@Z$0 10027120 f   ListenSocket.obj
 0001:00026120       __unwindfunclet$??0logic_error@std@@QAE@ABV01@@Z$0 10027120 f   ListenSocket.obj
 0001:00026128       __ehhandler$??0runtime_error@std@@QAE@ABV01@@Z 10027128 f   ListenSocket.obj
 0001:00026128       __ehhandler$??0logic_error@std@@QAE@ABV01@@Z 10027128 f   ListenSocket.obj
 0001:00026150       __unwindfunclet$??0sentry@?$basic_ostream@DU?$char_traits@D@std@@@std@@QAE@AAV12@@Z$0 10027150 f   ListenSocket.obj
 0001:00026158       __ehhandler$??0sentry@?$basic_ostream@DU?$char_traits@D@std@@@std@@QAE@AAV12@@Z 10027158 f   ListenSocket.obj
 0001:00026180       __ehhandler$?_Osfx@?$basic_ostream@DU?$char_traits@D@std@@@std@@QAEXXZ 10027180 f   ListenSocket.obj
 0001:000261a0       __unwindfunclet$??1sentry@?$basic_ostream@DU?$char_traits@D@std@@@std@@QAE@XZ$0 100271a0 f   ListenSocket.obj
 0001:000261a8       __ehhandler$??1sentry@?$basic_ostream@DU?$char_traits@D@std@@@std@@QAE@XZ 100271a8 f   ListenSocket.obj
 0001:000261d0       __unwindfunclet$??$?6U?$char_traits@D@std@@@std@@YAAAV?$basic_ostream@DU?$char_traits@D@std@@@0@AAV10@PBD@Z$2 100271d0 f   ListenSocket.obj
 0001:000261d8       __ehhandler$??$?6U?$char_traits@D@std@@@std@@YAAAV?$basic_ostream@DU?$char_traits@D@std@@@0@AAV10@PBD@Z 100271d8 f   ListenSocket.obj
 0001:00026200       __unwindfunclet$?put@?$basic_ostream@DU?$char_traits@D@std@@@std@@QAEAAV12@D@Z$2 10027200 f   ListenSocket.obj
 0001:00026208       __ehhandler$?put@?$basic_ostream@DU?$char_traits@D@std@@@std@@QAEAAV12@D@Z 10027208 f   ListenSocket.obj
 0001:00026230       __unwindfunclet$?PushMsg@CMsgRouter@serve@@IAE_NKAAVIMessage@sbase@@@Z$0 10027230 f   MsgRouter.obj
 0001:00026230       __unwindfunclet$?PushOutMsg@CMsgRouter@serve@@QAE_NKAAVIMessage@sbase@@@Z$0 10027230 f   MsgRouter.obj
 0001:0002623b       __ehhandler$?PushOutMsg@CMsgRouter@serve@@QAE_NKAAVIMessage@sbase@@@Z 1002723b f   MsgRouter.obj
 0001:0002623b       __ehhandler$?PushMsg@CMsgRouter@serve@@IAE_NKAAVIMessage@sbase@@@Z 1002723b f   MsgRouter.obj
 0001:00026260       __unwindfunclet$??0CRouterPort@serve@@QAE@AAVCMsgRouter@1@H@Z$0 10027260 f   MsgRouter.obj
 0001:0002626b       __unwindfunclet$??0CRouterPort@serve@@QAE@AAVCMsgRouter@1@H@Z$1 1002726b f   MsgRouter.obj
 0001:00026276       __ehhandler$??0CRouterPort@serve@@QAE@AAVCMsgRouter@1@H@Z 10027276 f   MsgRouter.obj
 0001:000262a0       __unwindfunclet$??1CMsgRouter@serve@@MAE@XZ$2 100272a0 f   MsgRouter.obj
 0001:000262ab       __ehhandler$??1CMsgRouter@serve@@MAE@XZ 100272ab f   MsgRouter.obj
 0001:000262d0       __unwindfunclet$??0CMsgRouter@serve@@IAE@H@Z$0 100272d0 f   MsgRouter.obj
 0001:000262db       __unwindfunclet$??0CMsgRouter@serve@@IAE@H@Z$1 100272db f   MsgRouter.obj
 0001:000262e6       __ehhandler$??0CMsgRouter@serve@@IAE@H@Z 100272e6 f   MsgRouter.obj
 0001:00026310       __unwindfunclet$?CreateNew@CMsgRouter@serve@@SAPAV12@XZ$2 10027310 f   MsgRouter.obj
 0001:0002631b       __ehhandler$?CreateNew@CMsgRouter@serve@@SAPAV12@XZ 1002731b f   MsgRouter.obj
 0001:00026340       __ehhandler$?DisConnect@CNetClient@@UAEXXZ 10027340 f   NetClient.obj
 0001:00026360       __unwindfunclet$?Duplicate@?$TEncryptClient@$0CA@$0PN@$06$0BP@$0HK@$0MP@$0OF@$0DP@@net@@UAEPAVIEncryptor@2@XZ$0 10027360 f   NetClient.obj
 0001:0002636b       __ehhandler$?Duplicate@?$TEncryptClient@$0CA@$0PN@$06$0BP@$0HK@$0MP@$0OF@$0DP@@net@@UAEPAVIEncryptor@2@XZ 1002736b f   NetClient.obj
 0001:00026390       __unwindfunclet$?Connect@CNetClient@@UAE_NXZ$2 10027390 f   NetClient.obj
 0001:0002639b       __unwindfunclet$?Connect@CNetClient@@UAE_NXZ$3 1002739b f   NetClient.obj
 0001:000263a6       __ehhandler$?Connect@CNetClient@@UAE_NXZ 100273a6 f   NetClient.obj
 0001:000263d0       __unwindfunclet$??1CNetClient@@QAE@XZ$2 100273d0 f   NetClient.obj
 0001:000263db       __unwindfunclet$??1CNetClient@@QAE@XZ$3 100273db f   NetClient.obj
 0001:000263e6       __ehhandler$??1CNetClient@@QAE@XZ 100273e6 f   NetClient.obj
 0001:00026410       __unwindfunclet$??0CNetClient@@IAE@XZ$0 10027410 f   NetClient.obj
 0001:0002641b       __ehhandler$??0CNetClient@@IAE@XZ 1002741b f   NetClient.obj
 0001:00026440       __unwindfunclet$?CreateNew@CNetClient@@SAPAV1@XZ$0 10027440 f   NetClient.obj
 0001:00026440       __unwindfunclet$?GetInstance@CKernelImpl@serve@@SAPAV12@XZ$0 10027440 f   NetClient.obj
 0001:0002644b       __ehhandler$?GetInstance@CKernelImpl@serve@@SAPAV12@XZ 1002744b f   NetClient.obj
 0001:0002644b       __ehhandler$?CreateNew@CNetClient@@SAPAV1@XZ 1002744b f   NetClient.obj
 0001:00026470       __unwindfunclet$?OnRcvMsg@CNetClient@@UAEHPBXH@Z$2 10027470 f   NetClient.obj
 0001:0002647b       __ehhandler$?OnRcvMsg@CNetClient@@UAEHPBXH@Z 1002747b f   NetClient.obj
 0001:000264a0       __unwindfunclet$?Duplicate@?$TEncryptServer@$0LCJNDMIE@$0MMGCEKNK@@net@@UAEPAVIEncryptor@2@XZ$0 100274a0 f   NetServeImpl.obj
 0001:000264ab       __ehhandler$?Duplicate@?$TEncryptServer@$0LCJNDMIE@$0MMGCEKNK@@net@@UAEPAVIEncryptor@2@XZ 100274ab f   NetServeImpl.obj
 0001:000264d0       __unwindfunclet$?Init@CNetworkServeImpl@ns@@QAE_NHPAD@Z$0 100274d0 f   NetServeImpl.obj
 0001:000264db       __unwindfunclet$?Init@CNetworkServeImpl@ns@@QAE_NHPAD@Z$1 100274db f   NetServeImpl.obj
 0001:000264e6       __ehhandler$?Init@CNetworkServeImpl@ns@@QAE_NHPAD@Z 100274e6 f   NetServeImpl.obj
 0001:00026510       __unwindfunclet$??1CNetworkServeImpl@ns@@UAE@XZ$2 10027510 f   NetServeImpl.obj
 0001:0002651b       __ehhandler$??1CNetworkServeImpl@ns@@UAE@XZ 1002751b f   NetServeImpl.obj
 0001:00026540       __unwindfunclet$??0CNetworkServeImpl@ns@@QAE@PAVIPort@serve@@GW4TYPE@1@@Z$0 10027540 f   NetServeImpl.obj
 0001:0002654b       __ehhandler$??0CNetworkServeImpl@ns@@QAE@PAVIPort@serve@@GW4TYPE@1@@Z 1002754b f   NetServeImpl.obj
 0001:00026570       __unwindfunclet$?ServeCreate@ns@@YAPAVIServe@serve@@PAVIRouter@3@GW4TYPE@1@@Z$4 10027570 f   NetServeImpl.obj
 0001:0002657e       __unwindfunclet$?ServeCreate@ns@@YAPAVIServe@serve@@PAVIRouter@3@GW4TYPE@1@@Z$5 1002757e f   NetServeImpl.obj
 0001:00026589       __unwindfunclet$?ServeCreate@ns@@YAPAVIServe@serve@@PAVIRouter@3@GW4TYPE@1@@Z$6 10027589 f   NetServeImpl.obj
 0001:00026594       __ehhandler$?ServeCreate@ns@@YAPAVIServe@serve@@PAVIRouter@3@GW4TYPE@1@@Z 10027594 f   NetServeImpl.obj
 0001:000265c0       __unwindfunclet$?CleanMsg@CRouterPort@serve@@UAEXXZ$4 100275c0 f   RouterPort.obj
 0001:000265c8       __ehhandler$?CleanMsg@CRouterPort@serve@@UAEXXZ 100275c8 f   RouterPort.obj
 0001:000265f0       __unwindfunclet$?TakeMsg@CRouterPort@serve@@UAEPAVIMessage@sbase@@XZ$0 100275f0 f   RouterPort.obj
 0001:000265f0       __unwindfunclet$?TakeMsgFromOut@CRouterPort@serve@@UAEPAVIMessage@sbase@@XZ$0 100275f0 f   RouterPort.obj
 0001:000265f8       __ehhandler$?TakeMsg@CRouterPort@serve@@UAEPAVIMessage@sbase@@XZ 100275f8 f   RouterPort.obj
 0001:000265f8       __ehhandler$?TakeMsgFromOut@CRouterPort@serve@@UAEPAVIMessage@sbase@@XZ 100275f8 f   RouterPort.obj
 0001:00026620       __unwindfunclet$??1CRouterPort@serve@@UAE@XZ$0 10027620 f   RouterPort.obj
 0001:0002662b       __unwindfunclet$??1CRouterPort@serve@@UAE@XZ$1 1002762b f   RouterPort.obj
 0001:00026636       __unwindfunclet$??1CRouterPort@serve@@UAE@XZ$2 10027636 f   RouterPort.obj
 0001:00026641       __ehhandler$??1CRouterPort@serve@@UAE@XZ 10027641 f   RouterPort.obj
 0001:00026660       __unwindfunclet$?_Incsize@?$list@IV?$allocator@I@std@@@std@@IAEXI@Z$0 10027660 f   RouterPort.obj
 0001:00026660       __unwindfunclet$?_Incsize@?$list@PAVIMessage@sbase@@V?$allocator@PAVIMessage@sbase@@@std@@@std@@IAEXI@Z$0 10027660 f   RouterPort.obj
 0001:00026668       __ehhandler$?_Incsize@?$list@IV?$allocator@I@std@@@std@@IAEXI@Z 10027668 f   RouterPort.obj
 0001:00026668       __ehhandler$?_Incsize@?$list@PAVIMessage@sbase@@V?$allocator@PAVIMessage@sbase@@@std@@@std@@IAEXI@Z 10027668 f   RouterPort.obj
 0001:00026690       __unwindfunclet$?PushMsg@CRouterPort@serve@@UAE_NPAVIMessage@sbase@@@Z$0 10027690 f   RouterPort.obj
 0001:0002669b       __ehhandler$?PushMsg@CRouterPort@serve@@UAE_NPAVIMessage@sbase@@@Z 1002769b f   RouterPort.obj
 0001:000266d0       __unwindfunclet$?PushOutMsg@CRouterPort@serve@@QAE_NPAVIMessage@sbase@@@Z$0 100276d0 f   RouterPort.obj
 0001:000266d8       __ehhandler$?PushOutMsg@CRouterPort@serve@@QAE_NPAVIMessage@sbase@@@Z 100276d8 f   RouterPort.obj
 0001:00026700       __ehhandler$??1CServe@serve@@UAE@XZ 10027700 f   Serve.obj
 0001:00026720       __unwindfunclet$??1_Locinfo@std@@QAE@XZ$0 10027720 f   ServeSocket.obj
 0001:00026728       __unwindfunclet$??1_Locinfo@std@@QAE@XZ$1 10027728 f   ServeSocket.obj
 0001:00026733       __unwindfunclet$??1_Locinfo@std@@QAE@XZ$2 10027733 f   ServeSocket.obj
 0001:0002673e       __unwindfunclet$??1_Locinfo@std@@QAE@XZ$3 1002773e f   ServeSocket.obj
 0001:00026749       __unwindfunclet$??1_Locinfo@std@@QAE@XZ$4 10027749 f   ServeSocket.obj
 0001:00026754       __ehhandler$??1_Locinfo@std@@QAE@XZ 10027754 f   ServeSocket.obj
 0001:00026770       __ehhandler$?CloseAll@CServeSocket@net@@IAEXXZ 10027770 f   ServeSocket.obj
 0001:00026790       __unwindfunclet$??1CListenSocket@net@@UAE@XZ$0 10027790 f   ServeSocket.obj
 0001:0002679b       __ehhandler$??1CListenSocket@net@@UAE@XZ 1002779b f   ServeSocket.obj
 0001:000267c0       __unwindfunclet$?erase@?$_Tree@V?$_Tmap_traits@KV?$basic_string@DU?$char_traits@D@std@@V?$allocator@D@2@@std@@U?$less@K@2@V?$allocator@U?$pair@$$CBKV?$basic_string@DU?$char_traits@D@std@@V?$allocator@D@2@@std@@@std@@@2@$0A@@std@@@std@@QAE?AViterator@12@V312@@Z$0 100277c0 f   ServeSocket.obj
 0001:000267c0       __unwindfunclet$?erase@?$_Tree@V?$_Tmap_traits@V?$basic_string@DU?$char_traits@D@std@@V?$allocator@D@2@@std@@PAVCServe@serve@@U?$less@V?$basic_string@DU?$char_traits@D@std@@V?$allocator@D@2@@std@@@2@V?$allocator@U?$pair@$$CBV?$basic_string@DU?$char_traits@D@std@@V?$allocator@D@2@@std@@PAVCServe@serve@@@std@@@2@$0A@@std@@@std@@QAE?AViterator@12@V312@@Z$0 100277c0 f   ServeSocket.obj
 0001:000267c0       __unwindfunclet$?erase@?$_Tree@V?$_Tmap_traits@IPAVCSocket@net@@U?$less@I@std@@V?$allocator@U?$pair@$$CBIPAVCSocket@net@@@std@@@4@$0A@@std@@@std@@QAE?AViterator@12@V312@@Z$0 100277c0 f   ServeSocket.obj
 0001:000267c0       __unwindfunclet$?erase@?$_Tree@V?$_Tmap_traits@IW4PORT@serve@@U?$less@I@std@@V?$allocator@U?$pair@$$CBIW4PORT@serve@@@std@@@4@$0A@@std@@@std@@QAE?AViterator@12@V312@@Z$0 100277c0 f   ServeSocket.obj
 0001:000267c0       __unwindfunclet$?erase@?$_Tree@V?$_Tmap_traits@GPAVCServe@serve@@U?$less@G@std@@V?$allocator@U?$pair@$$CBGPAVCServe@serve@@@std@@@4@$0A@@std@@@std@@QAE?AViterator@12@V312@@Z$0 100277c0 f   ServeSocket.obj
 0001:000267c8       __ehhandler$?erase@?$_Tree@V?$_Tmap_traits@IPAVCSocket@net@@U?$less@I@std@@V?$allocator@U?$pair@$$CBIPAVCSocket@net@@@std@@@4@$0A@@std@@@std@@QAE?AViterator@12@V312@@Z 100277c8 f   ServeSocket.obj
 0001:000267c8       __ehhandler$?erase@?$_Tree@V?$_Tmap_traits@GPAVCServe@serve@@U?$less@G@std@@V?$allocator@U?$pair@$$CBGPAVCServe@serve@@@std@@@4@$0A@@std@@@std@@QAE?AViterator@12@V312@@Z 100277c8 f   ServeSocket.obj
 0001:000267c8       __ehhandler$?erase@?$_Tree@V?$_Tmap_traits@V?$basic_string@DU?$char_traits@D@std@@V?$allocator@D@2@@std@@PAVCServe@serve@@U?$less@V?$basic_string@DU?$char_traits@D@std@@V?$allocator@D@2@@std@@@2@V?$allocator@U?$pair@$$CBV?$basic_string@DU?$char_traits@D@std@@V?$allocator@D@2@@std@@PAVCServe@serve@@@std@@@2@$0A@@std@@@std@@QAE?AViterator@12@V312@@Z 100277c8 f   ServeSocket.obj
 0001:000267c8       __ehhandler$?erase@?$_Tree@V?$_Tmap_traits@KV?$basic_string@DU?$char_traits@D@std@@V?$allocator@D@2@@std@@U?$less@K@2@V?$allocator@U?$pair@$$CBKV?$basic_string@DU?$char_traits@D@std@@V?$allocator@D@2@@std@@@std@@@2@$0A@@std@@@std@@QAE?AViterator@12@V312@@Z 100277c8 f   ServeSocket.obj
 0001:000267c8       __ehhandler$?erase@?$_Tree@V?$_Tmap_traits@IW4PORT@serve@@U?$less@I@std@@V?$allocator@U?$pair@$$CBIW4PORT@serve@@@std@@@4@$0A@@std@@@std@@QAE?AViterator@12@V312@@Z 100277c8 f   ServeSocket.obj
 0001:000267f0       __unwindfunclet$??0_Locinfo@std@@QAE@PBD@Z$0 100277f0 f   ServeSocket.obj
 0001:000267f8       __unwindfunclet$??0_Locinfo@std@@QAE@PBD@Z$1 100277f8 f   ServeSocket.obj
 0001:00026803       __unwindfunclet$??0_Locinfo@std@@QAE@PBD@Z$2 10027803 f   ServeSocket.obj
 0001:0002680e       __unwindfunclet$??0_Locinfo@std@@QAE@PBD@Z$3 1002780e f   ServeSocket.obj
 0001:00026819       __unwindfunclet$??0_Locinfo@std@@QAE@PBD@Z$4 10027819 f   ServeSocket.obj
 0001:00026824       __unwindfunclet$??0_Locinfo@std@@QAE@PBD@Z$5 10027824 f   ServeSocket.obj
 0001:0002682c       __ehhandler$??0_Locinfo@std@@QAE@PBD@Z 1002782c f   ServeSocket.obj
 0001:00026850       __unwindfunclet$??0?$num_put@DV?$ostreambuf_iterator@DU?$char_traits@D@std@@@std@@@std@@QAE@I@Z$0 10027850 f   ServeSocket.obj
 0001:0002685b       __ehhandler$??0?$num_put@DV?$ostreambuf_iterator@DU?$char_traits@D@std@@@std@@@std@@QAE@I@Z 1002785b f   ServeSocket.obj
 0001:00026890       __ehhandler$?_Init@?$numpunct@D@std@@IAEXABV_Locinfo@2@@Z 10027890 f   ServeSocket.obj
 0001:000268b0       __unwindfunclet$??0?$numpunct@D@std@@QAE@I@Z$0 100278b0 f   ServeSocket.obj
 0001:000268bb       __unwindfunclet$??0?$numpunct@D@std@@QAE@I@Z$1 100278bb f   ServeSocket.obj
 0001:000268c6       __ehhandler$??0?$numpunct@D@std@@QAE@I@Z 100278c6 f   ServeSocket.obj
 0001:00026900       __unwindfunclet$?_Getcat@?$numpunct@D@std@@SAIPAPBVfacet@locale@2@@Z$0 10027900 f   ServeSocket.obj
 0001:00026900       __unwindfunclet$?_Getcat@?$num_put@DV?$ostreambuf_iterator@DU?$char_traits@D@std@@@std@@@std@@SAIPAPBVfacet@locale@2@@Z$0 10027900 f   ServeSocket.obj
 0001:0002690b       __ehhandler$?_Getcat@?$num_put@DV?$ostreambuf_iterator@DU?$char_traits@D@std@@@std@@@std@@SAIPAPBVfacet@locale@2@@Z 1002790b f   ServeSocket.obj
 0001:0002690b       __ehhandler$?_Getcat@?$numpunct@D@std@@SAIPAPBVfacet@locale@2@@Z 1002790b f   ServeSocket.obj
 0001:00026930       __unwindfunclet$?CleanUp@CServeSocket@net@@QAEXI@Z$0 10027930 f   ServeSocket.obj
 0001:00026938       __ehhandler$?CleanUp@CServeSocket@net@@QAEXI@Z 10027938 f   ServeSocket.obj
 0001:00026960       __unwindfunclet$??1CServeSocket@net@@UAE@XZ$4 10027960 f   ServeSocket.obj
 0001:0002696b       __unwindfunclet$??1CServeSocket@net@@UAE@XZ$5 1002796b f   ServeSocket.obj
 0001:00026976       __unwindfunclet$??1CServeSocket@net@@UAE@XZ$6 10027976 f   ServeSocket.obj
 0001:00026981       __ehhandler$??1CServeSocket@net@@UAE@XZ 10027981 f   ServeSocket.obj
 0001:000269a0       __unwindfunclet$??$use_facet@V?$numpunct@D@std@@@std@@YAABV?$numpunct@D@0@ABVlocale@0@@Z$0 100279a0 f   ServeSocket.obj
 0001:000269a0       __unwindfunclet$??$use_facet@V?$num_put@DV?$ostreambuf_iterator@DU?$char_traits@D@std@@@std@@@std@@@std@@YAABV?$num_put@DV?$ostreambuf_iterator@DU?$char_traits@D@std@@@std@@@0@ABVlocale@0@@Z$0 100279a0 f   ServeSocket.obj
 0001:000269a8       __ehhandler$??$use_facet@V?$num_put@DV?$ostreambuf_iterator@DU?$char_traits@D@std@@@std@@@std@@@std@@YAABV?$num_put@DV?$ostreambuf_iterator@DU?$char_traits@D@std@@@std@@@0@ABVlocale@0@@Z 100279a8 f   ServeSocket.obj
 0001:000269a8       __ehhandler$??$use_facet@V?$numpunct@D@std@@@std@@YAABV?$numpunct@D@0@ABVlocale@0@@Z 100279a8 f   ServeSocket.obj
 0001:000269d0       __unwindfunclet$??0CServeSocket@net@@QAE@AAVIServeSocketEvent@1@PAVIEncryptor@1@1@Z$0 100279d0 f   ServeSocket.obj
 0001:000269db       __unwindfunclet$??0CServeSocket@net@@QAE@AAVIServeSocketEvent@1@PAVIEncryptor@1@1@Z$1 100279db f   ServeSocket.obj
 0001:000269e6       __unwindfunclet$??0CServeSocket@net@@QAE@AAVIServeSocketEvent@1@PAVIEncryptor@1@1@Z$2 100279e6 f   ServeSocket.obj
 0001:000269f1       __ehhandler$??0CServeSocket@net@@QAE@AAVIServeSocketEvent@1@PAVIEncryptor@1@1@Z 100279f1 f   ServeSocket.obj
 0001:00026a10       __unwindfunclet$?ServeSocketCreate@net@@YAPAVIServeSocket@1@AAVIServeSocketEvent@1@HPADPAVIEncryptor@1@2@Z$6 10027a10 f   ServeSocket.obj
 0001:00026a1b       __ehhandler$?ServeSocketCreate@net@@YAPAVIServeSocket@1@AAVIServeSocketEvent@1@HPADPAVIEncryptor@1@2@Z 10027a1b f   ServeSocket.obj
 0001:00026a40       __unwindfunclet$?do_put@?$num_put@DV?$ostreambuf_iterator@DU?$char_traits@D@std@@@std@@@std@@MBE?AV?$ostreambuf_iterator@DU?$char_traits@D@std@@@2@V32@AAVios_base@2@D_N@Z$0 10027a40 f   ServeSocket.obj
 0001:00026a48       __unwindfunclet$?do_put@?$num_put@DV?$ostreambuf_iterator@DU?$char_traits@D@std@@@std@@@std@@MBE?AV?$ostreambuf_iterator@DU?$char_traits@D@std@@@2@V32@AAVios_base@2@D_N@Z$1 10027a48 f   ServeSocket.obj
 0001:00026a50       __unwindfunclet$?do_put@?$num_put@DV?$ostreambuf_iterator@DU?$char_traits@D@std@@@std@@@std@@MBE?AV?$ostreambuf_iterator@DU?$char_traits@D@std@@@2@V32@AAVios_base@2@D_N@Z$2 10027a50 f   ServeSocket.obj
 0001:00026a58       __unwindfunclet$?do_put@?$num_put@DV?$ostreambuf_iterator@DU?$char_traits@D@std@@@std@@@std@@MBE?AV?$ostreambuf_iterator@DU?$char_traits@D@std@@@2@V32@AAVios_base@2@D_N@Z$3 10027a58 f   ServeSocket.obj
 0001:00026a60       __ehhandler$?do_put@?$num_put@DV?$ostreambuf_iterator@DU?$char_traits@D@std@@@std@@@std@@MBE?AV?$ostreambuf_iterator@DU?$char_traits@D@std@@@2@V32@AAVios_base@2@D_N@Z 10027a60 f   ServeSocket.obj
 0001:00026a90       __unwindfunclet$?_Fput@?$num_put@DV?$ostreambuf_iterator@DU?$char_traits@D@std@@@std@@@std@@ABA?AV?$ostreambuf_iterator@DU?$char_traits@D@std@@@2@V32@AAVios_base@2@DPBDIIII@Z$0 10027a90 f   ServeSocket.obj
 0001:00026a98       __unwindfunclet$?_Fput@?$num_put@DV?$ostreambuf_iterator@DU?$char_traits@D@std@@@std@@@std@@ABA?AV?$ostreambuf_iterator@DU?$char_traits@D@std@@@2@V32@AAVios_base@2@DPBDIIII@Z$1 10027a98 f   ServeSocket.obj
 0001:00026aa0       __unwindfunclet$?_Fput@?$num_put@DV?$ostreambuf_iterator@DU?$char_traits@D@std@@@std@@@std@@ABA?AV?$ostreambuf_iterator@DU?$char_traits@D@std@@@2@V32@AAVios_base@2@DPBDIIII@Z$2 10027aa0 f   ServeSocket.obj
 0001:00026aa8       __ehhandler$?_Fput@?$num_put@DV?$ostreambuf_iterator@DU?$char_traits@D@std@@@std@@@std@@ABA?AV?$ostreambuf_iterator@DU?$char_traits@D@std@@@2@V32@AAVios_base@2@DPBDIIII@Z 10027aa8 f   ServeSocket.obj
 0001:00026ad0       __unwindfunclet$?_Iput@?$num_put@DV?$ostreambuf_iterator@DU?$char_traits@D@std@@@std@@@std@@ABA?AV?$ostreambuf_iterator@DU?$char_traits@D@std@@@2@V32@AAVios_base@2@DPADI@Z$0 10027ad0 f   ServeSocket.obj
 0001:00026ad8       __unwindfunclet$?_Iput@?$num_put@DV?$ostreambuf_iterator@DU?$char_traits@D@std@@@std@@@std@@ABA?AV?$ostreambuf_iterator@DU?$char_traits@D@std@@@2@V32@AAVios_base@2@DPADI@Z$1 10027ad8 f   ServeSocket.obj
 0001:00026ae0       __ehhandler$?_Iput@?$num_put@DV?$ostreambuf_iterator@DU?$char_traits@D@std@@@std@@@std@@ABA?AV?$ostreambuf_iterator@DU?$char_traits@D@std@@@2@V32@AAVios_base@2@DPADI@Z 10027ae0 f   ServeSocket.obj
 0001:00026b10       __unwindfunclet$??6?$basic_ostream@DU?$char_traits@D@std@@@std@@QAEAAV01@I@Z$2 10027b10 f   ServeSocket.obj
 0001:00026b18       __unwindfunclet$??6?$basic_ostream@DU?$char_traits@D@std@@@std@@QAEAAV01@I@Z$3 10027b18 f   ServeSocket.obj
 0001:00026b20       __ehhandler$??6?$basic_ostream@DU?$char_traits@D@std@@@std@@QAEAAV01@I@Z 10027b20 f   ServeSocket.obj
 0001:00026b40       __unwindfunclet$?SendMsg@CServeSocket@net@@UAE_NIPBXH@Z$0 10027b40 f   ServeSocket.obj
 0001:00026b4b       __ehhandler$?SendMsg@CServeSocket@net@@UAE_NIPBXH@Z 10027b4b f   ServeSocket.obj
 0001:00026b80       __unwindfunclet$?Process@CServeSocket@net@@UAEXXZ$2 10027b80 f   ServeSocket.obj
 0001:00026b8b       __ehhandler$?Process@CServeSocket@net@@UAEXXZ 10027b8b f   ServeSocket.obj
 0001:00026bb0       __ehhandler$?ChgEncryptor@CSocket@net@@QAEXW4ENCRYPTOR_TYPE@2@PAVIEncryptor@2@@Z 10027bb0 f   Socket.obj
 0001:00026bd0       __unwindfunclet$??0CSocket@net@@QAE@IPAVIEncryptor@1@0@Z$0 10027bd0 f   Socket.obj
 0001:00026bde       __unwindfunclet$??0CSocket@net@@QAE@IPAVIEncryptor@1@0@Z$1 10027bde f   Socket.obj
 0001:00026bec       __ehhandler$??0CSocket@net@@QAE@IPAVIEncryptor@1@0@Z 10027bec f   Socket.obj
 0001:00026c10       __unwindfunclet$??1CSocket@net@@UAE@XZ$4 10027c10 f   Socket.obj
 0001:00026c1e       __unwindfunclet$??1CSocket@net@@UAE@XZ$5 10027c1e f   Socket.obj
 0001:00026c2c       __ehhandler$??1CSocket@net@@UAE@XZ 10027c2c f   Socket.obj
 0001:00026c50       __unwindfunclet$??1CHeap@sbase@@QAE@XZ$0 10027c50 f   base:Heap.obj
 0001:00026c5b       __ehhandler$??1CHeap@sbase@@QAE@XZ 10027c5b f   base:Heap.obj
 0001:00026c80       __unwindfunclet$??0CHeap@sbase@@QAE@PBD@Z$0 10027c80 f   base:Heap.obj
 0001:00026c8b       __ehhandler$??0CHeap@sbase@@QAE@PBD@Z 10027c8b f   base:Heap.obj
 0001:00026ca6       __unwindfunclet$?_Xlen@_String_base@std@@SAXXZ$0 10027ca6 f   libcpmt:string.obj
 0001:00026ca6       __unwindfunclet$?_Xran@_String_base@std@@SAXXZ$0 10027ca6 f   libcpmt:string.obj
 0001:00026cae       __ehhandler$?_Xlen@_String_base@std@@SAXXZ 10027cae f   libcpmt:string.obj
 0001:00026cae       __ehhandler$?_Xran@_String_base@std@@SAXXZ 10027cae f   libcpmt:string.obj
 0001:00026cc9       __unwindfunclet$??0?$basic_streambuf@DU?$char_traits@D@std@@@std@@IAE@XZ$0 10027cc9 f   libcpmt:cout.obj
 0001:00026cd4       __ehhandler$??0?$basic_streambuf@DU?$char_traits@D@std@@@std@@IAE@XZ 10027cd4 f   libcpmt:cout.obj
 0001:00026cef       __unwindfunclet$?uflow@?$basic_filebuf@DU?$char_traits@D@std@@@std@@MAEHXZ$0 10027cef f   libcpmt:cout.obj
 0001:00026cf7       __ehhandler$?uflow@?$basic_filebuf@DU?$char_traits@D@std@@@std@@MAEHXZ 10027cf7 f   libcpmt:cout.obj
 0001:00026d1c       __unwindfunclet$?_Endwrite@?$basic_filebuf@DU?$char_traits@D@std@@@std@@IAE_NXZ$0 10027d1c f   libcpmt:cout.obj
 0001:00026d24       __ehhandler$?_Endwrite@?$basic_filebuf@DU?$char_traits@D@std@@@std@@IAE_NXZ 10027d24 f   libcpmt:cout.obj
 0001:00026d49       __unwindfunclet$?overflow@?$basic_filebuf@DU?$char_traits@D@std@@@std@@MAEHH@Z$0 10027d49 f   libcpmt:cout.obj
 0001:00026d51       __ehhandler$?overflow@?$basic_filebuf@DU?$char_traits@D@std@@@std@@MAEHH@Z 10027d51 f   libcpmt:cout.obj
 0001:00026d76       __unwindfunclet$??0?$codecvt@DDH@std@@QAE@I@Z$0 10027d76 f   libcpmt:cout.obj
 0001:00026d76       __unwindfunclet$??0?$ctype@D@std@@QAE@PBF_NI@Z$0 10027d76 f   libcpmt:cout.obj
 0001:00026d81       __ehhandler$??0?$ctype@D@std@@QAE@PBF_NI@Z 10027d81 f   libcpmt:cout.obj
 0001:00026d81       __ehhandler$??0?$codecvt@DDH@std@@QAE@I@Z 10027d81 f   libcpmt:cout.obj
 0001:00026da9       __unwindfunclet$?_Getcat@?$ctype@D@std@@SAIPAPBVfacet@locale@2@@Z$0 10027da9 f   libcpmt:cout.obj
 0001:00026da9       __unwindfunclet$?_Getcat@?$codecvt@DDH@std@@SAIPAPBVfacet@locale@2@@Z$0 10027da9 f   libcpmt:cout.obj
 0001:00026db3       __ehhandler$?_Getcat@?$ctype@D@std@@SAIPAPBVfacet@locale@2@@Z 10027db3 f   libcpmt:cout.obj
 0001:00026db3       __ehhandler$?_Getcat@?$codecvt@DDH@std@@SAIPAPBVfacet@locale@2@@Z 10027db3 f   libcpmt:cout.obj
 0001:00026dce       __unwindfunclet$??1?$basic_filebuf@DU?$char_traits@D@std@@@std@@UAE@XZ$0 10027dce f   libcpmt:cout.obj
 0001:00026dd6       __ehhandler$??1?$basic_filebuf@DU?$char_traits@D@std@@@std@@UAE@XZ 10027dd6 f   libcpmt:cout.obj
 0001:00026df1       __unwindfunclet$?widen@?$basic_ios@DU?$char_traits@D@std@@@std@@QBEDD@Z$0 10027df1 f   libcpmt:cout.obj
 0001:00026df9       __ehhandler$?widen@?$basic_ios@DU?$char_traits@D@std@@@std@@QBEDD@Z 10027df9 f   libcpmt:cout.obj
 0001:00026e14       __unwindfunclet$??$use_facet@V?$ctype@D@std@@@std@@YAABV?$ctype@D@0@ABVlocale@0@@Z$0 10027e14 f   libcpmt:cout.obj
 0001:00026e14       __unwindfunclet$??$use_facet@V?$codecvt@DDH@std@@@std@@YAABV?$codecvt@DDH@0@ABVlocale@0@@Z$0 10027e14 f   libcpmt:cout.obj
 0001:00026e1c       __ehhandler$??$use_facet@V?$ctype@D@std@@@std@@YAABV?$ctype@D@0@ABVlocale@0@@Z 10027e1c f   libcpmt:cout.obj
 0001:00026e1c       __ehhandler$??$use_facet@V?$codecvt@DDH@std@@@std@@YAABV?$codecvt@DDH@0@ABVlocale@0@@Z 10027e1c f   libcpmt:cout.obj
 0001:00026e37       __unwindfunclet$??0?$basic_ostream@DU?$char_traits@D@std@@@std@@QAE@PAV?$basic_streambuf@DU?$char_traits@D@std@@@1@_N@Z$0 10027e37 f   libcpmt:cout.obj
 0001:00026e53       __ehhandler$??0?$basic_ostream@DU?$char_traits@D@std@@@std@@QAE@PAV?$basic_streambuf@DU?$char_traits@D@std@@@1@_N@Z 10027e53 f   libcpmt:cout.obj
 0001:00026e6e       __unwindfunclet$?_Locimp_dtor@_Locimp@locale@std@@CAXPAV123@@Z$0 10027e6e f   libcpmt:locale0.obj
 0001:00026e76       __ehhandler$?_Locimp_dtor@_Locimp@locale@std@@CAXPAV123@@Z 10027e76 f   libcpmt:locale0.obj
 0001:00026e91       __unwindfunclet$??0_Locimp@locale@std@@AAE@_N@Z$0 10027e91 f   libcpmt:locale0.obj
 0001:00026e99       __ehhandler$??0_Locimp@locale@std@@AAE@_N@Z 10027e99 f   libcpmt:locale0.obj
 0001:00026eb4       __unwindfunclet$??1_Locimp@locale@std@@MAE@XZ$0 10027eb4 f   libcpmt:locale0.obj
 0001:00026ebc       __unwindfunclet$??1_Locimp@locale@std@@MAE@XZ$1 10027ebc f   libcpmt:locale0.obj
 0001:00026ec7       __ehhandler$??1_Locimp@locale@std@@MAE@XZ 10027ec7 f   libcpmt:locale0.obj
 0001:00026ee2       __unwindfunclet$?_Init@locale@std@@CAPAV_Locimp@12@XZ$0 10027ee2 f   libcpmt:locale0.obj
 0001:00026eea       __unwindfunclet$?_Init@locale@std@@CAPAV_Locimp@12@XZ$1 10027eea f   libcpmt:locale0.obj
 0001:00026ef4       __ehhandler$?_Init@locale@std@@CAPAV_Locimp@12@XZ 10027ef4 f   libcpmt:locale0.obj
 0001:00026f0f       __ehhandler$?CallUnexpected@@YAXPBU_s_ESTypeList@@@Z 10027f0f f   LIBCMT:frame.obj
 0001:00026f30       ??__E?s_heap@?$TEncryptServer@$0LCJNDMIE@$0MMGCEKNK@@net@@1VCHeap@sbase@@A@@YAXXZ 10027f30 f   NetServeImpl.obj
 0001:00026f50       ??__E?s_heap@CRouterPort@serve@@1VCHeap@sbase@@A@@YAXXZ 10027f50 f   RouterPort.obj
 0001:00026f70       ??__E?s_heap@CSocket@net@@1VCHeap@sbase@@A@@YAXXZ 10027f70 f   Socket.obj
 0001:00026f90       ??__EsetCnStr@sbase@@YAXXZ 10027f90 f   base:SvrBase.obj
 0001:00026fd0       ??__Einitlocks@@YAXXZ      10027fd0 f   libcpmt:cout.obj
 0001:00026fe6       ??__Efout@std@@YAXXZ       10027fe6 f   libcpmt:cout.obj
 0001:00027005       ??__Ecout@std@@YAXXZ       10028005 f   libcpmt:cout.obj
 0001:00027024       ??__Einit_cout@std@@YAXXZ  10028024 f   libcpmt:cout.obj
 0001:0002702e       ??__Einitlocks@std@@YAXXZ  1002802e f   libcpmt:xlock.obj
 0001:00027044       ??__Eclassic_locale@std@@YAXXZ 10028044 f   libcpmt:locale0.obj
 0001:00027050       ??__Einitlocks@std@@YAXXZ  10028050 f   libcpmt:iosptrs.obj
 0001:00027066       ??__Einit_atexit@@YAXXZ    10028066 f   libcpmt:iosptrs.obj
 0001:00027080       ??__F?s_heap@?$TEncryptServer@$0LCJNDMIE@$0MMGCEKNK@@net@@1VCHeap@sbase@@A@@YAXXZ 10028080 f   NetServeImpl.obj
 0001:00027090       ??__F?s_heap@CRouterPort@serve@@1VCHeap@sbase@@A@@YAXXZ 10028090 f   RouterPort.obj
 0001:000270a0       ??__F?s_heap@CSocket@net@@1VCHeap@sbase@@A@@YAXXZ 100280a0 f   Socket.obj
 0001:000270b0       ??__FsetCnStr@sbase@@YAXXZ 100280b0 f   base:SvrBase.obj
 0001:000270f0       ??__Finitlocks@@YAXXZ      100280f0 f   libcpmt:cout.obj
 0001:000270fa       ??__Fcout@std@@YAXXZ       100280fa f   libcpmt:cout.obj
 0001:00027104       ??__Ffout@std@@YAXXZ       10028104 f   libcpmt:cout.obj
 0001:0002710e       ??__Finitlocks@std@@YAXXZ  1002810e f   libcpmt:xlock.obj
 0001:00027118       ??__Fclassic_locale@std@@YAXXZ 10028118 f   libcpmt:locale0.obj
 0001:00027122       ??__Finitlocks@std@@YAXXZ  10028122 f   libcpmt:iosptrs.obj
 0001:0002712c       ??__Finit_atexit@@YAXXZ    1002812c f   libcpmt:iosptrs.obj
 0001:00027136       ??__Fnomem@?5???2@YAPAXI@Z@YAXXZ 10028136 f   LIBCMT:new.obj
